Archive member included because of file (symbol)

c:/program files/atmel/atmel toolchain/avr8 gcc/native/3.4.1051/avr8-gnu-toolchain/bin/../lib/gcc/avr/4.8.1/../../../../avr/lib/avr6\libm.a(addsf3.o)
                              libs/Print.o (__subsf3)
c:/program files/atmel/atmel toolchain/avr8 gcc/native/3.4.1051/avr8-gnu-toolchain/bin/../lib/gcc/avr/4.8.1/../../../../avr/lib/avr6\libm.a(addsf3x.o)
                              c:/program files/atmel/atmel toolchain/avr8 gcc/native/3.4.1051/avr8-gnu-toolchain/bin/../lib/gcc/avr/4.8.1/../../../../avr/lib/avr6\libm.a(addsf3.o) (__addsf3x)
c:/program files/atmel/atmel toolchain/avr8 gcc/native/3.4.1051/avr8-gnu-toolchain/bin/../lib/gcc/avr/4.8.1/../../../../avr/lib/avr6\libm.a(cmpsf2.o)
                              libs/Print.o (__ltsf2)
c:/program files/atmel/atmel toolchain/avr8 gcc/native/3.4.1051/avr8-gnu-toolchain/bin/../lib/gcc/avr/4.8.1/../../../../avr/lib/avr6\libm.a(divsf3.o)
                              libs/Print.o (__divsf3)
c:/program files/atmel/atmel toolchain/avr8 gcc/native/3.4.1051/avr8-gnu-toolchain/bin/../lib/gcc/avr/4.8.1/../../../../avr/lib/avr6\libm.a(divsf3x.o)
                              c:/program files/atmel/atmel toolchain/avr8 gcc/native/3.4.1051/avr8-gnu-toolchain/bin/../lib/gcc/avr/4.8.1/../../../../avr/lib/avr6\libm.a(divsf3.o) (__divsf3x)
c:/program files/atmel/atmel toolchain/avr8 gcc/native/3.4.1051/avr8-gnu-toolchain/bin/../lib/gcc/avr/4.8.1/../../../../avr/lib/avr6\libm.a(fixsfsi.o)
                              libs/Print.o (__fixsfsi)
c:/program files/atmel/atmel toolchain/avr8 gcc/native/3.4.1051/avr8-gnu-toolchain/bin/../lib/gcc/avr/4.8.1/../../../../avr/lib/avr6\libm.a(fixunssfsi.o)
                              libs/Print.o (__fixunssfsi)
c:/program files/atmel/atmel toolchain/avr8 gcc/native/3.4.1051/avr8-gnu-toolchain/bin/../lib/gcc/avr/4.8.1/../../../../avr/lib/avr6\libm.a(floatsisf.o)
                              libs/Print.o (__floatunsisf)
c:/program files/atmel/atmel toolchain/avr8 gcc/native/3.4.1051/avr8-gnu-toolchain/bin/../lib/gcc/avr/4.8.1/../../../../avr/lib/avr6\libm.a(fp_cmp.o)
                              c:/program files/atmel/atmel toolchain/avr8 gcc/native/3.4.1051/avr8-gnu-toolchain/bin/../lib/gcc/avr/4.8.1/../../../../avr/lib/avr6\libm.a(cmpsf2.o) (__fp_cmp)
c:/program files/atmel/atmel toolchain/avr8 gcc/native/3.4.1051/avr8-gnu-toolchain/bin/../lib/gcc/avr/4.8.1/../../../../avr/lib/avr6\libm.a(fp_inf.o)
                              c:/program files/atmel/atmel toolchain/avr8 gcc/native/3.4.1051/avr8-gnu-toolchain/bin/../lib/gcc/avr/4.8.1/../../../../avr/lib/avr6\libm.a(addsf3x.o) (__fp_inf)
c:/program files/atmel/atmel toolchain/avr8 gcc/native/3.4.1051/avr8-gnu-toolchain/bin/../lib/gcc/avr/4.8.1/../../../../avr/lib/avr6\libm.a(fp_nan.o)
                              c:/program files/atmel/atmel toolchain/avr8 gcc/native/3.4.1051/avr8-gnu-toolchain/bin/../lib/gcc/avr/4.8.1/../../../../avr/lib/avr6\libm.a(addsf3x.o) (__fp_nan)
c:/program files/atmel/atmel toolchain/avr8 gcc/native/3.4.1051/avr8-gnu-toolchain/bin/../lib/gcc/avr/4.8.1/../../../../avr/lib/avr6\libm.a(fp_pscA.o)
                              c:/program files/atmel/atmel toolchain/avr8 gcc/native/3.4.1051/avr8-gnu-toolchain/bin/../lib/gcc/avr/4.8.1/../../../../avr/lib/avr6\libm.a(addsf3x.o) (__fp_pscA)
c:/program files/atmel/atmel toolchain/avr8 gcc/native/3.4.1051/avr8-gnu-toolchain/bin/../lib/gcc/avr/4.8.1/../../../../avr/lib/avr6\libm.a(fp_pscB.o)
                              c:/program files/atmel/atmel toolchain/avr8 gcc/native/3.4.1051/avr8-gnu-toolchain/bin/../lib/gcc/avr/4.8.1/../../../../avr/lib/avr6\libm.a(addsf3x.o) (__fp_pscB)
c:/program files/atmel/atmel toolchain/avr8 gcc/native/3.4.1051/avr8-gnu-toolchain/bin/../lib/gcc/avr/4.8.1/../../../../avr/lib/avr6\libm.a(fp_round.o)
                              c:/program files/atmel/atmel toolchain/avr8 gcc/native/3.4.1051/avr8-gnu-toolchain/bin/../lib/gcc/avr/4.8.1/../../../../avr/lib/avr6\libm.a(addsf3.o) (__fp_round)
c:/program files/atmel/atmel toolchain/avr8 gcc/native/3.4.1051/avr8-gnu-toolchain/bin/../lib/gcc/avr/4.8.1/../../../../avr/lib/avr6\libm.a(fp_split3.o)
                              c:/program files/atmel/atmel toolchain/avr8 gcc/native/3.4.1051/avr8-gnu-toolchain/bin/../lib/gcc/avr/4.8.1/../../../../avr/lib/avr6\libm.a(addsf3x.o) (__fp_split3)
c:/program files/atmel/atmel toolchain/avr8 gcc/native/3.4.1051/avr8-gnu-toolchain/bin/../lib/gcc/avr/4.8.1/../../../../avr/lib/avr6\libm.a(fp_zero.o)
                              c:/program files/atmel/atmel toolchain/avr8 gcc/native/3.4.1051/avr8-gnu-toolchain/bin/../lib/gcc/avr/4.8.1/../../../../avr/lib/avr6\libm.a(addsf3x.o) (__fp_zero)
c:/program files/atmel/atmel toolchain/avr8 gcc/native/3.4.1051/avr8-gnu-toolchain/bin/../lib/gcc/avr/4.8.1/../../../../avr/lib/avr6\libm.a(gesf2.o)
                              libs/Print.o (__gtsf2)
c:/program files/atmel/atmel toolchain/avr8 gcc/native/3.4.1051/avr8-gnu-toolchain/bin/../lib/gcc/avr/4.8.1/../../../../avr/lib/avr6\libm.a(mulsf3.o)
                              libs/Print.o (__mulsf3)
c:/program files/atmel/atmel toolchain/avr8 gcc/native/3.4.1051/avr8-gnu-toolchain/bin/../lib/gcc/avr/4.8.1/../../../../avr/lib/avr6\libm.a(mulsf3x.o)
                              c:/program files/atmel/atmel toolchain/avr8 gcc/native/3.4.1051/avr8-gnu-toolchain/bin/../lib/gcc/avr/4.8.1/../../../../avr/lib/avr6\libm.a(mulsf3.o) (__mulsf3x)
c:/program files/atmel/atmel toolchain/avr8 gcc/native/3.4.1051/avr8-gnu-toolchain/bin/../lib/gcc/avr/4.8.1/../../../../avr/lib/avr6\libm.a(unordsf2.o)
                              libs/Print.o (__unordsf2)
../../../../pinoccio16mhz\libcore.a(malloc.c.o)
                              libs/new.o (malloc)
../../../../pinoccio16mhz\libcore.a(realloc.c.o)
                              libs/WString.o (realloc)
c:/program files/atmel/atmel toolchain/avr8 gcc/native/3.4.1051/avr8-gnu-toolchain/bin/../lib/gcc/avr/4.8.1/avr6\libgcc.a(_mulsi3.o)
                              libs/WMath.o (__mulsi3)
c:/program files/atmel/atmel toolchain/avr8 gcc/native/3.4.1051/avr8-gnu-toolchain/bin/../lib/gcc/avr/4.8.1/avr6\libgcc.a(_udivmodsi4.o)
                              libs/HardwareSerial.o (__udivmodsi4)
c:/program files/atmel/atmel toolchain/avr8 gcc/native/3.4.1051/avr8-gnu-toolchain/bin/../lib/gcc/avr/4.8.1/avr6\libgcc.a(_divmodsi4.o)
                              libs/Tone.o (__divmodsi4)
c:/program files/atmel/atmel toolchain/avr8 gcc/native/3.4.1051/avr8-gnu-toolchain/bin/../lib/gcc/avr/4.8.1/avr6\libgcc.a(_negsi2.o)
                              c:/program files/atmel/atmel toolchain/avr8 gcc/native/3.4.1051/avr8-gnu-toolchain/bin/../lib/gcc/avr/4.8.1/avr6\libgcc.a(_divmodsi4.o) (__negsi2)
c:/program files/atmel/atmel toolchain/avr8 gcc/native/3.4.1051/avr8-gnu-toolchain/bin/../lib/gcc/avr/4.8.1/avr6\libgcc.a(_exit.o)
                              c:/program files/atmel/atmel toolchain/avr8 gcc/native/3.4.1051/avr8-gnu-toolchain/bin/../lib/gcc/avr/4.8.1/../../../../avr/lib/avr6/crtm256rfr2.o (exit)
c:/program files/atmel/atmel toolchain/avr8 gcc/native/3.4.1051/avr8-gnu-toolchain/bin/../lib/gcc/avr/4.8.1/avr6\libgcc.a(_tablejump.o)
                              libs/WInterrupts.o (__tablejump2__)
c:/program files/atmel/atmel toolchain/avr8 gcc/native/3.4.1051/avr8-gnu-toolchain/bin/../lib/gcc/avr/4.8.1/avr6\libgcc.a(_copy_data.o)
                              libs/HardwareSerial.o (__do_copy_data)
c:/program files/atmel/atmel toolchain/avr8 gcc/native/3.4.1051/avr8-gnu-toolchain/bin/../lib/gcc/avr/4.8.1/avr6\libgcc.a(_clear_bss.o)
                              libs/HardwareSerial0.o (__do_clear_bss)
c:/program files/atmel/atmel toolchain/avr8 gcc/native/3.4.1051/avr8-gnu-toolchain/bin/../lib/gcc/avr/4.8.1/avr6\libgcc.a(_ctors.o)
                              libs/HardwareSerial0.o (__do_global_ctors)
c:/program files/atmel/atmel toolchain/avr8 gcc/native/3.4.1051/avr8-gnu-toolchain/bin/../lib/gcc/avr/4.8.1/avr6\libgcc.a(_dtors.o)
                              libs/Scout.o (__do_global_dtors)
c:/program files/atmel/atmel toolchain/avr8 gcc/native/3.4.1051/avr8-gnu-toolchain/bin/../lib/gcc/avr/4.8.1/avr6\libgcc.a(_muluhisi3.o)
                              libs/Stream.o (__muluhisi3)
c:/program files/atmel/atmel toolchain/avr8 gcc/native/3.4.1051/avr8-gnu-toolchain/bin/../lib/gcc/avr/4.8.1/avr6\libgcc.a(_tablejump_elpm.o)
                              c:/program files/atmel/atmel toolchain/avr8 gcc/native/3.4.1051/avr8-gnu-toolchain/bin/../lib/gcc/avr/4.8.1/avr6\libgcc.a(_ctors.o) (__tablejump_elpm__)
c:/program files/atmel/atmel toolchain/avr8 gcc/native/3.4.1051/avr8-gnu-toolchain/bin/../lib/gcc/avr/4.8.1/avr6\libgcc.a(_umulhisi3.o)
                              c:/program files/atmel/atmel toolchain/avr8 gcc/native/3.4.1051/avr8-gnu-toolchain/bin/../lib/gcc/avr/4.8.1/avr6\libgcc.a(_muluhisi3.o) (__umulhisi3)
c:/program files/atmel/atmel toolchain/avr8 gcc/native/3.4.1051/avr8-gnu-toolchain/bin/../lib/gcc/avr/4.8.1/../../../../avr/lib/avr6\libc.a(dtostrf.o)
                              libs/WString.o (dtostrf)
c:/program files/atmel/atmel toolchain/avr8 gcc/native/3.4.1051/avr8-gnu-toolchain/bin/../lib/gcc/avr/4.8.1/../../../../avr/lib/avr6\libc.a(rand.o)
                              libs/nwkTx.o (rand)
c:/program files/atmel/atmel toolchain/avr8 gcc/native/3.4.1051/avr8-gnu-toolchain/bin/../lib/gcc/avr/4.8.1/../../../../avr/lib/avr6\libc.a(random.o)
                              libs/WMath.o (random)
c:/program files/atmel/atmel toolchain/avr8 gcc/native/3.4.1051/avr8-gnu-toolchain/bin/../lib/gcc/avr/4.8.1/../../../../avr/lib/avr6\libc.a(strtoul.o)
                              libs/ScoutHandler.o (strtoul)
c:/program files/atmel/atmel toolchain/avr8 gcc/native/3.4.1051/avr8-gnu-toolchain/bin/../lib/gcc/avr/4.8.1/../../../../avr/lib/avr6\libc.a(atof.o)
                              libs/WString.o (atof)
c:/program files/atmel/atmel toolchain/avr8 gcc/native/3.4.1051/avr8-gnu-toolchain/bin/../lib/gcc/avr/4.8.1/../../../../avr/lib/avr6\libc.a(atoi.o)
                              libs/Scout.o (atoi)
c:/program files/atmel/atmel toolchain/avr8 gcc/native/3.4.1051/avr8-gnu-toolchain/bin/../lib/gcc/avr/4.8.1/../../../../avr/lib/avr6\libc.a(atol.o)
                              libs/WString.o (atol)
c:/program files/atmel/atmel toolchain/avr8 gcc/native/3.4.1051/avr8-gnu-toolchain/bin/../lib/gcc/avr/4.8.1/../../../../avr/lib/avr6\libc.a(setjmp.o)
                              libs/bitlash.o (setjmp)
c:/program files/atmel/atmel toolchain/avr8 gcc/native/3.4.1051/avr8-gnu-toolchain/bin/../lib/gcc/avr/4.8.1/../../../../avr/lib/avr6\libc.a(isalnum.o)
                              libs/bitlash.o (isalnum)
c:/program files/atmel/atmel toolchain/avr8 gcc/native/3.4.1051/avr8-gnu-toolchain/bin/../lib/gcc/avr/4.8.1/../../../../avr/lib/avr6\libc.a(cty_isfalse.o)
                              c:/program files/atmel/atmel toolchain/avr8 gcc/native/3.4.1051/avr8-gnu-toolchain/bin/../lib/gcc/avr/4.8.1/../../../../avr/lib/avr6\libc.a(isalnum.o) (__ctype_isfalse)
c:/program files/atmel/atmel toolchain/avr8 gcc/native/3.4.1051/avr8-gnu-toolchain/bin/../lib/gcc/avr/4.8.1/../../../../avr/lib/avr6\libc.a(isalpha.o)
                              libs/bitlash.o (isalpha)
c:/program files/atmel/atmel toolchain/avr8 gcc/native/3.4.1051/avr8-gnu-toolchain/bin/../lib/gcc/avr/4.8.1/../../../../avr/lib/avr6\libc.a(isxdigit.o)
                              libs/WiFiBackpack.o (isxdigit)
c:/program files/atmel/atmel toolchain/avr8 gcc/native/3.4.1051/avr8-gnu-toolchain/bin/../lib/gcc/avr/4.8.1/../../../../avr/lib/avr6\libc.a(isprint.o)
                              libs/GSCore.o (isprint)
c:/program files/atmel/atmel toolchain/avr8 gcc/native/3.4.1051/avr8-gnu-toolchain/bin/../lib/gcc/avr/4.8.1/../../../../avr/lib/avr6\libc.a(isspace.o)
                              libs/WString.o (isspace)
c:/program files/atmel/atmel toolchain/avr8 gcc/native/3.4.1051/avr8-gnu-toolchain/bin/../lib/gcc/avr/4.8.1/../../../../avr/lib/avr6\libc.a(tolower.o)
                              libs/WString.o (tolower)
c:/program files/atmel/atmel toolchain/avr8 gcc/native/3.4.1051/avr8-gnu-toolchain/bin/../lib/gcc/avr/4.8.1/../../../../avr/lib/avr6\libc.a(toupper.o)
                              libs/WString.o (toupper)
c:/program files/atmel/atmel toolchain/avr8 gcc/native/3.4.1051/avr8-gnu-toolchain/bin/../lib/gcc/avr/4.8.1/../../../../avr/lib/avr6\libc.a(strcmp_P.o)
                              libs/bitlash.o (strcmp_P)
c:/program files/atmel/atmel toolchain/avr8 gcc/native/3.4.1051/avr8-gnu-toolchain/bin/../lib/gcc/avr/4.8.1/../../../../avr/lib/avr6\libc.a(strcpy_P.o)
                              libs/WString.o (strcpy_P)
c:/program files/atmel/atmel toolchain/avr8 gcc/native/3.4.1051/avr8-gnu-toolchain/bin/../lib/gcc/avr/4.8.1/../../../../avr/lib/avr6\libc.a(strlen_P.o)
                              libs/WString.o (__strlen_P)
c:/program files/atmel/atmel toolchain/avr8 gcc/native/3.4.1051/avr8-gnu-toolchain/bin/../lib/gcc/avr/4.8.1/../../../../avr/lib/avr6\libc.a(strncpy_P.o)
                              libs/bitlash.o (strncpy_P)
c:/program files/atmel/atmel toolchain/avr8 gcc/native/3.4.1051/avr8-gnu-toolchain/bin/../lib/gcc/avr/4.8.1/../../../../avr/lib/avr6\libc.a(strdup.o)
                              libs/key.o (strdup)
c:/program files/atmel/atmel toolchain/avr8 gcc/native/3.4.1051/avr8-gnu-toolchain/bin/../lib/gcc/avr/4.8.1/../../../../avr/lib/avr6\libc.a(memcmp.o)
                              libs/IPAddress.o (memcmp)
c:/program files/atmel/atmel toolchain/avr8 gcc/native/3.4.1051/avr8-gnu-toolchain/bin/../lib/gcc/avr/4.8.1/../../../../avr/lib/avr6\libc.a(memcpy.o)
                              libs/WString.o (memcpy)
c:/program files/atmel/atmel toolchain/avr8 gcc/native/3.4.1051/avr8-gnu-toolchain/bin/../lib/gcc/avr/4.8.1/../../../../avr/lib/avr6\libc.a(memmove.o)
                              libs/WString.o (memmove)
c:/program files/atmel/atmel toolchain/avr8 gcc/native/3.4.1051/avr8-gnu-toolchain/bin/../lib/gcc/avr/4.8.1/../../../../avr/lib/avr6\libc.a(memset.o)
                              libs/bitlash.o (memset)
c:/program files/atmel/atmel toolchain/avr8 gcc/native/3.4.1051/avr8-gnu-toolchain/bin/../lib/gcc/avr/4.8.1/../../../../avr/lib/avr6\libc.a(strchr.o)
                              libs/WString.o (strchr)
c:/program files/atmel/atmel toolchain/avr8 gcc/native/3.4.1051/avr8-gnu-toolchain/bin/../lib/gcc/avr/4.8.1/../../../../avr/lib/avr6\libc.a(strcmp.o)
                              libs/WString.o (strcmp)
c:/program files/atmel/atmel toolchain/avr8 gcc/native/3.4.1051/avr8-gnu-toolchain/bin/../lib/gcc/avr/4.8.1/../../../../avr/lib/avr6\libc.a(strcpy.o)
                              libs/WString.o (strcpy)
c:/program files/atmel/atmel toolchain/avr8 gcc/native/3.4.1051/avr8-gnu-toolchain/bin/../lib/gcc/avr/4.8.1/../../../../avr/lib/avr6\libc.a(strncmp.o)
                              libs/WString.o (strncmp)
c:/program files/atmel/atmel toolchain/avr8 gcc/native/3.4.1051/avr8-gnu-toolchain/bin/../lib/gcc/avr/4.8.1/../../../../avr/lib/avr6\libc.a(strncpy.o)
                              libs/WString.o (strncpy)
c:/program files/atmel/atmel toolchain/avr8 gcc/native/3.4.1051/avr8-gnu-toolchain/bin/../lib/gcc/avr/4.8.1/../../../../avr/lib/avr6\libc.a(strrchr.o)
                              libs/WString.o (strrchr)
c:/program files/atmel/atmel toolchain/avr8 gcc/native/3.4.1051/avr8-gnu-toolchain/bin/../lib/gcc/avr/4.8.1/../../../../avr/lib/avr6\libc.a(strstr.o)
                              libs/WString.o (strstr)
c:/program files/atmel/atmel toolchain/avr8 gcc/native/3.4.1051/avr8-gnu-toolchain/bin/../lib/gcc/avr/4.8.1/../../../../avr/lib/avr6\libc.a(itoa.o)
                              libs/WString.o (__itoa)
c:/program files/atmel/atmel toolchain/avr8 gcc/native/3.4.1051/avr8-gnu-toolchain/bin/../lib/gcc/avr/4.8.1/../../../../avr/lib/avr6\libc.a(itoa_ncheck.o)
                              c:/program files/atmel/atmel toolchain/avr8 gcc/native/3.4.1051/avr8-gnu-toolchain/bin/../lib/gcc/avr/4.8.1/../../../../avr/lib/avr6\libc.a(itoa.o) (__itoa_ncheck)
c:/program files/atmel/atmel toolchain/avr8 gcc/native/3.4.1051/avr8-gnu-toolchain/bin/../lib/gcc/avr/4.8.1/../../../../avr/lib/avr6\libc.a(ltoa.o)
                              libs/WString.o (__ltoa)
c:/program files/atmel/atmel toolchain/avr8 gcc/native/3.4.1051/avr8-gnu-toolchain/bin/../lib/gcc/avr/4.8.1/../../../../avr/lib/avr6\libc.a(ltoa_ncheck.o)
                              c:/program files/atmel/atmel toolchain/avr8 gcc/native/3.4.1051/avr8-gnu-toolchain/bin/../lib/gcc/avr/4.8.1/../../../../avr/lib/avr6\libc.a(ltoa.o) (__ltoa_ncheck)
c:/program files/atmel/atmel toolchain/avr8 gcc/native/3.4.1051/avr8-gnu-toolchain/bin/../lib/gcc/avr/4.8.1/../../../../avr/lib/avr6\libc.a(mulsi10.o)
                              c:/program files/atmel/atmel toolchain/avr8 gcc/native/3.4.1051/avr8-gnu-toolchain/bin/../lib/gcc/avr/4.8.1/../../../../avr/lib/avr6\libc.a(atol.o) (__mulsi_const_10)
c:/program files/atmel/atmel toolchain/avr8 gcc/native/3.4.1051/avr8-gnu-toolchain/bin/../lib/gcc/avr/4.8.1/../../../../avr/lib/avr6\libc.a(mul10.o)
                              c:/program files/atmel/atmel toolchain/avr8 gcc/native/3.4.1051/avr8-gnu-toolchain/bin/../lib/gcc/avr/4.8.1/../../../../avr/lib/avr6\libc.a(atoi.o) (__mulhi_const_10)
c:/program files/atmel/atmel toolchain/avr8 gcc/native/3.4.1051/avr8-gnu-toolchain/bin/../lib/gcc/avr/4.8.1/../../../../avr/lib/avr6\libc.a(ultoa.o)
                              libs/WString.o (__ultoa)
c:/program files/atmel/atmel toolchain/avr8 gcc/native/3.4.1051/avr8-gnu-toolchain/bin/../lib/gcc/avr/4.8.1/../../../../avr/lib/avr6\libc.a(ultoa_ncheck.o)
                              c:/program files/atmel/atmel toolchain/avr8 gcc/native/3.4.1051/avr8-gnu-toolchain/bin/../lib/gcc/avr/4.8.1/../../../../avr/lib/avr6\libc.a(ultoa.o) (__ultoa_ncheck)
c:/program files/atmel/atmel toolchain/avr8 gcc/native/3.4.1051/avr8-gnu-toolchain/bin/../lib/gcc/avr/4.8.1/../../../../avr/lib/avr6\libc.a(utoa.o)
                              libs/WString.o (__utoa)
c:/program files/atmel/atmel toolchain/avr8 gcc/native/3.4.1051/avr8-gnu-toolchain/bin/../lib/gcc/avr/4.8.1/../../../../avr/lib/avr6\libc.a(utoa_ncheck.o)
                              c:/program files/atmel/atmel toolchain/avr8 gcc/native/3.4.1051/avr8-gnu-toolchain/bin/../lib/gcc/avr/4.8.1/../../../../avr/lib/avr6\libc.a(utoa.o) (__utoa_ncheck)
c:/program files/atmel/atmel toolchain/avr8 gcc/native/3.4.1051/avr8-gnu-toolchain/bin/../lib/gcc/avr/4.8.1/../../../../avr/lib/avr6\libc.a(snprintf.o)
                              libs/GSCore.o (snprintf)
c:/program files/atmel/atmel toolchain/avr8 gcc/native/3.4.1051/avr8-gnu-toolchain/bin/../lib/gcc/avr/4.8.1/../../../../avr/lib/avr6\libc.a(sprintf.o)
                              libs/Shell.o (sprintf)
c:/program files/atmel/atmel toolchain/avr8 gcc/native/3.4.1051/avr8-gnu-toolchain/bin/../lib/gcc/avr/4.8.1/../../../../avr/lib/avr6\libc.a(vsnprintf.o)
                              libs/GSCore.o (vsnprintf)
c:/program files/atmel/atmel toolchain/avr8 gcc/native/3.4.1051/avr8-gnu-toolchain/bin/../lib/gcc/avr/4.8.1/../../../../avr/lib/avr6\libc.a(vfprintf_std.o)
                              c:/program files/atmel/atmel toolchain/avr8 gcc/native/3.4.1051/avr8-gnu-toolchain/bin/../lib/gcc/avr/4.8.1/../../../../avr/lib/avr6\libc.a(snprintf.o) (vfprintf)
c:/program files/atmel/atmel toolchain/avr8 gcc/native/3.4.1051/avr8-gnu-toolchain/bin/../lib/gcc/avr/4.8.1/../../../../avr/lib/avr6\libc.a(eerd_byte_atmega256rfr2.o)
                              libs/bitlash.o (__eerd_byte_EEPROM_SUFFIX)
c:/program files/atmel/atmel toolchain/avr8 gcc/native/3.4.1051/avr8-gnu-toolchain/bin/../lib/gcc/avr/4.8.1/../../../../avr/lib/avr6\libc.a(eerd_dword_atmega256rfr2.o)
                              libs/Pinoccio.o (__eerd_dword_EEPROM_SUFFIX)
c:/program files/atmel/atmel toolchain/avr8 gcc/native/3.4.1051/avr8-gnu-toolchain/bin/../lib/gcc/avr/4.8.1/../../../../avr/lib/avr6\libc.a(eerd_word_atmega256rfr2.o)
                              libs/Pinoccio.o (__eerd_word_EEPROM_SUFFIX)
c:/program files/atmel/atmel toolchain/avr8 gcc/native/3.4.1051/avr8-gnu-toolchain/bin/../lib/gcc/avr/4.8.1/../../../../avr/lib/avr6\libc.a(eeupd_byte_atmega256rfr2.o)
                              libs/halRgbLed.o (__eeupd_byte_EEPROM_SUFFIX)
c:/program files/atmel/atmel toolchain/avr8 gcc/native/3.4.1051/avr8-gnu-toolchain/bin/../lib/gcc/avr/4.8.1/../../../../avr/lib/avr6\libc.a(eeupd_word_atmega256rfr2.o)
                              libs/Pinoccio.o (__eeupd_word_EEPROM_SUFFIX)
c:/program files/atmel/atmel toolchain/avr8 gcc/native/3.4.1051/avr8-gnu-toolchain/bin/../lib/gcc/avr/4.8.1/../../../../avr/lib/avr6\libc.a(eewr_byte_atmega256rfr2.o)
                              libs/bitlash.o (__eewr_byte_EEPROM_SUFFIX)
c:/program files/atmel/atmel toolchain/avr8 gcc/native/3.4.1051/avr8-gnu-toolchain/bin/../lib/gcc/avr/4.8.1/../../../../avr/lib/avr6\libc.a(errno.o)
                              c:/program files/atmel/atmel toolchain/avr8 gcc/native/3.4.1051/avr8-gnu-toolchain/bin/../lib/gcc/avr/4.8.1/../../../../avr/lib/avr6\libc.a(strtoul.o) (errno)
c:/program files/atmel/atmel toolchain/avr8 gcc/native/3.4.1051/avr8-gnu-toolchain/bin/../lib/gcc/avr/4.8.1/../../../../avr/lib/avr6\libc.a(dtoa_prf.o)
                              c:/program files/atmel/atmel toolchain/avr8 gcc/native/3.4.1051/avr8-gnu-toolchain/bin/../lib/gcc/avr/4.8.1/../../../../avr/lib/avr6\libc.a(dtostrf.o) (dtoa_prf)
c:/program files/atmel/atmel toolchain/avr8 gcc/native/3.4.1051/avr8-gnu-toolchain/bin/../lib/gcc/avr/4.8.1/../../../../avr/lib/avr6\libc.a(strtod.o)
                              c:/program files/atmel/atmel toolchain/avr8 gcc/native/3.4.1051/avr8-gnu-toolchain/bin/../lib/gcc/avr/4.8.1/../../../../avr/lib/avr6\libc.a(atof.o) (strtod)
c:/program files/atmel/atmel toolchain/avr8 gcc/native/3.4.1051/avr8-gnu-toolchain/bin/../lib/gcc/avr/4.8.1/../../../../avr/lib/avr6\libc.a(ftoa_engine.o)
                              c:/program files/atmel/atmel toolchain/avr8 gcc/native/3.4.1051/avr8-gnu-toolchain/bin/../lib/gcc/avr/4.8.1/../../../../avr/lib/avr6\libc.a(dtoa_prf.o) (__ftoa_engine)
c:/program files/atmel/atmel toolchain/avr8 gcc/native/3.4.1051/avr8-gnu-toolchain/bin/../lib/gcc/avr/4.8.1/../../../../avr/lib/avr6\libc.a(strncasecmp_P.o)
                              c:/program files/atmel/atmel toolchain/avr8 gcc/native/3.4.1051/avr8-gnu-toolchain/bin/../lib/gcc/avr/4.8.1/../../../../avr/lib/avr6\libc.a(strtod.o) (strncasecmp_P)
c:/program files/atmel/atmel toolchain/avr8 gcc/native/3.4.1051/avr8-gnu-toolchain/bin/../lib/gcc/avr/4.8.1/../../../../avr/lib/avr6\libc.a(strnlen_P.o)
                              c:/program files/atmel/atmel toolchain/avr8 gcc/native/3.4.1051/avr8-gnu-toolchain/bin/../lib/gcc/avr/4.8.1/../../../../avr/lib/avr6\libc.a(vfprintf_std.o) (strnlen_P)
c:/program files/atmel/atmel toolchain/avr8 gcc/native/3.4.1051/avr8-gnu-toolchain/bin/../lib/gcc/avr/4.8.1/../../../../avr/lib/avr6\libc.a(strnlen.o)
                              c:/program files/atmel/atmel toolchain/avr8 gcc/native/3.4.1051/avr8-gnu-toolchain/bin/../lib/gcc/avr/4.8.1/../../../../avr/lib/avr6\libc.a(vfprintf_std.o) (strnlen)
c:/program files/atmel/atmel toolchain/avr8 gcc/native/3.4.1051/avr8-gnu-toolchain/bin/../lib/gcc/avr/4.8.1/../../../../avr/lib/avr6\libc.a(strrev.o)
                              c:/program files/atmel/atmel toolchain/avr8 gcc/native/3.4.1051/avr8-gnu-toolchain/bin/../lib/gcc/avr/4.8.1/../../../../avr/lib/avr6\libc.a(ultoa_ncheck.o) (strrev)
c:/program files/atmel/atmel toolchain/avr8 gcc/native/3.4.1051/avr8-gnu-toolchain/bin/../lib/gcc/avr/4.8.1/../../../../avr/lib/avr6\libc.a(fputc.o)
                              c:/program files/atmel/atmel toolchain/avr8 gcc/native/3.4.1051/avr8-gnu-toolchain/bin/../lib/gcc/avr/4.8.1/../../../../avr/lib/avr6\libc.a(vfprintf_std.o) (fputc)
c:/program files/atmel/atmel toolchain/avr8 gcc/native/3.4.1051/avr8-gnu-toolchain/bin/../lib/gcc/avr/4.8.1/../../../../avr/lib/avr6\libc.a(ultoa_invert.o)
                              c:/program files/atmel/atmel toolchain/avr8 gcc/native/3.4.1051/avr8-gnu-toolchain/bin/../lib/gcc/avr/4.8.1/../../../../avr/lib/avr6\libc.a(vfprintf_std.o) (__ultoa_invert)
c:/program files/atmel/atmel toolchain/avr8 gcc/native/3.4.1051/avr8-gnu-toolchain/bin/../lib/gcc/avr/4.8.1/../../../../avr/lib/avr6\libc.a(eerd_block_atmega256rfr2.o)
                              c:/program files/atmel/atmel toolchain/avr8 gcc/native/3.4.1051/avr8-gnu-toolchain/bin/../lib/gcc/avr/4.8.1/../../../../avr/lib/avr6\libc.a(eerd_dword_atmega256rfr2.o) (__eerd_blraw_EEPROM_SUFFIX)
c:/program files/atmel/atmel toolchain/avr8 gcc/native/3.4.1051/avr8-gnu-toolchain/bin/../lib/gcc/avr/4.8.1/avr6\libgcc.a(_mulshisi3.o)
                              c:/program files/atmel/atmel toolchain/avr8 gcc/native/3.4.1051/avr8-gnu-toolchain/bin/../lib/gcc/avr/4.8.1/../../../../avr/lib/avr6\libc.a(rand.o) (__mulohisi3)

Allocating common symbols
Common symbol       size              file

errno               0x2               c:/program files/atmel/atmel toolchain/avr8 gcc/native/3.4.1051/avr8-gnu-toolchain/bin/../lib/gcc/avr/4.8.1/../../../../avr/lib/avr6\libc.a(errno.o)
nwkIb               0x38              libs/nwk.o
__brkval            0x2               ../../../../pinoccio16mhz\libcore.a(malloc.c.o)
keytableTmp         0x40              libs/key.o
keytable            0x80              libs/key.o
__flp               0x2               ../../../../pinoccio16mhz\libcore.a(malloc.c.o)

Discarded input sections

 .bss           0x00000000        0x0 c:/program files/atmel/atmel toolchain/avr8 gcc/native/3.4.1051/avr8-gnu-toolchain/bin/../lib/gcc/avr/4.8.1/../../../../avr/lib/avr6/crtm256rfr2.o
 .text          0x00000000        0x0 libs/CDC.o
 .bss           0x00000000        0x0 libs/CDC.o
 .group         0x00000000        0x8 libs/HardwareSerial.o
 .text          0x00000000        0x0 libs/HardwareSerial.o
 .bss           0x00000000        0x0 libs/HardwareSerial.o
 .text._ZN14HardwareSerial3endEv
                0x00000000       0x38 libs/HardwareSerial.o
 .text          0x00000000        0x0 libs/HardwareSerial0.o
 .bss           0x00000000        0x0 libs/HardwareSerial0.o
 .text          0x00000000        0x0 libs/HardwareSerial1.o
 .bss           0x00000000        0x0 libs/HardwareSerial1.o
 .text          0x00000000        0x0 libs/HardwareSerial2.o
 .bss           0x00000000        0x0 libs/HardwareSerial2.o
 .text          0x00000000        0x0 libs/HardwareSerial3.o
 .bss           0x00000000        0x0 libs/HardwareSerial3.o
 .text          0x00000000        0x0 libs/HID.o
 .bss           0x00000000        0x0 libs/HID.o
 .text          0x00000000        0x0 libs/hooks.o
 .bss           0x00000000        0x0 libs/hooks.o
 .group         0x00000000        0x8 libs/IPAddress.o
 .group         0x00000000        0x8 libs/IPAddress.o
 .text          0x00000000        0x0 libs/IPAddress.o
 .bss           0x00000000        0x0 libs/IPAddress.o
 .text._ZN9IPAddressC2Em
                0x00000000       0x14 libs/IPAddress.o
 .text._ZN9IPAddressC2EPKh
                0x00000000       0x20 libs/IPAddress.o
 .text._ZN9IPAddressaSEPKh
                0x00000000       0x16 libs/IPAddress.o
 .text._ZNK9IPAddresseqEPKh
                0x00000000       0x1e libs/IPAddress.o
 .rodata._ZTV9Printable
                0x00000000        0x6 libs/IPAddress.o
 .text          0x00000000        0x0 libs/main.o
 .bss           0x00000000        0x0 libs/main.o
 .text          0x00000000        0x0 libs/new.o
 .bss           0x00000000        0x0 libs/new.o
 .text._Znwj    0x00000000        0x4 libs/new.o
 .text._Znaj    0x00000000        0x4 libs/new.o
 .text._ZdlPv   0x00000000        0x4 libs/new.o
 .text._ZdaPv   0x00000000        0x4 libs/new.o
 .text.__cxa_guard_acquire
                0x00000000       0x12 libs/new.o
 .text.__cxa_guard_release
                0x00000000        0x8 libs/new.o
 .text.__cxa_guard_abort
                0x00000000        0x2 libs/new.o
 .text.__cxa_pure_virtual
                0x00000000        0x2 libs/new.o
 .group         0x00000000        0x8 libs/Print.o
 .group         0x00000000        0x8 libs/Print.o
 .text          0x00000000        0x0 libs/Print.o
 .bss           0x00000000        0x0 libs/Print.o
 .text._ZN5Print5printERK9Printable
                0x00000000       0x14 libs/Print.o
 .text._ZN5Print7printlnEc
                0x00000000       0x24 libs/Print.o
 .text._ZN5Print7printlnERK9Printable
                0x00000000       0x24 libs/Print.o
 .text._ZN5Print7printlnEli
                0x00000000       0x24 libs/Print.o
 .text._ZN5Print7printlnEdi
                0x00000000       0x24 libs/Print.o
 .rodata._ZTV5Print
                0x00000000        0x8 libs/Print.o
 .text          0x00000000        0x0 libs/Stream.o
 .bss           0x00000000        0x0 libs/Stream.o
 .text._ZN6Stream9timedReadEv
                0x00000000       0x5c libs/Stream.o
 .text._ZN6Stream9timedPeekEv
                0x00000000       0x5c libs/Stream.o
 .text._ZN6Stream13peekNextDigitEv
                0x00000000       0x38 libs/Stream.o
 .text._ZN6Stream10setTimeoutEm
                0x00000000        0xc libs/Stream.o
 .text._ZN6Stream9findUntilEPcjS0_j
                0x00000000       0xba libs/Stream.o
 .text._ZN6Stream4findEPcj
                0x00000000       0x16 libs/Stream.o
 .text._ZN6Stream9findUntilEPcS0_
                0x00000000       0x34 libs/Stream.o
 .text._ZN6Stream4findEPc
                0x00000000        0x8 libs/Stream.o
 .text._ZN6Stream8parseIntEc
                0x00000000       0xda libs/Stream.o
 .text._ZN6Stream8parseIntEv
                0x00000000        0x6 libs/Stream.o
 .text._ZN6Stream10parseFloatEc
                0x00000000      0x100 libs/Stream.o
 .text._ZN6Stream10parseFloatEv
                0x00000000        0x6 libs/Stream.o
 .text._ZN6Stream9readBytesEPcj
                0x00000000       0x46 libs/Stream.o
 .text._ZN6Stream14readBytesUntilEcPcj
                0x00000000       0x66 libs/Stream.o
 .rodata.str1.1
                0x00000000        0x1 libs/Stream.o
 .text._ZN6Stream10readStringEv
                0x00000000       0x34 libs/Stream.o
 .text._ZN6Stream15readStringUntilEc
                0x00000000       0x4c libs/Stream.o
 .text          0x00000000        0x0 libs/Tone.o
 .bss           0x00000000        0x0 libs/Tone.o
 .text._Z4tonehjm
                0x00000000      0x5d6 libs/Tone.o
 .bss.timer5_pin_mask
                0x00000000        0x1 libs/Tone.o
 .bss.timer5_pin_port
                0x00000000        0x2 libs/Tone.o
 .bss.timer5_toggle_count
                0x00000000        0x4 libs/Tone.o
 .bss.timer4_pin_mask
                0x00000000        0x1 libs/Tone.o
 .bss.timer4_pin_port
                0x00000000        0x2 libs/Tone.o
 .bss.timer4_toggle_count
                0x00000000        0x4 libs/Tone.o
 .bss.timer3_pin_mask
                0x00000000        0x1 libs/Tone.o
 .bss.timer3_pin_port
                0x00000000        0x2 libs/Tone.o
 .bss.timer3_toggle_count
                0x00000000        0x4 libs/Tone.o
 .bss.timer1_pin_mask
                0x00000000        0x1 libs/Tone.o
 .bss.timer1_pin_port
                0x00000000        0x2 libs/Tone.o
 .bss.timer1_toggle_count
                0x00000000        0x4 libs/Tone.o
 .bss.timer0_pin_mask
                0x00000000        0x1 libs/Tone.o
 .bss.timer0_pin_port
                0x00000000        0x2 libs/Tone.o
 .bss.timer0_toggle_count
                0x00000000        0x4 libs/Tone.o
 .text          0x00000000        0x0 libs/USBCore.o
 .bss           0x00000000        0x0 libs/USBCore.o
 .text          0x00000000        0x0 libs/WInterrupts.o
 .bss           0x00000000        0x0 libs/WInterrupts.o
 .text.attachInterrupt
                0x00000000       0xf6 libs/WInterrupts.o
 .progmem.gcc_sw_table.attachInterrupt
                0x00000000       0x10 libs/WInterrupts.o
 .text.detachInterrupt
                0x00000000       0x48 libs/WInterrupts.o
 .progmem.gcc_sw_table.detachInterrupt
                0x00000000       0x10 libs/WInterrupts.o
 .text          0x00000000        0x0 libs/wiring.o
 .bss           0x00000000        0x0 libs/wiring.o
 .text          0x00000000        0x0 libs/wiring_analog.o
 .bss           0x00000000        0x0 libs/wiring_analog.o
 .text.analogReference
                0x00000000        0x6 libs/wiring_analog.o
 .text          0x00000000        0x0 libs/wiring_digital.o
 .bss           0x00000000        0x0 libs/wiring_digital.o
 .text          0x00000000        0x0 libs/wiring_pulse.o
 .bss           0x00000000        0x0 libs/wiring_pulse.o
 .text          0x00000000        0x0 libs/wiring_shift.o
 .bss           0x00000000        0x0 libs/wiring_shift.o
 .text.shiftIn  0x00000000       0x7a libs/wiring_shift.o
 .text.shiftOut
                0x00000000       0x8c libs/wiring_shift.o
 .text          0x00000000        0x0 libs/WMath.o
 .bss           0x00000000        0x0 libs/WMath.o
 .text._Z10randomSeedj
                0x00000000       0x10 libs/WMath.o
 .text._Z6randoml
                0x00000000       0x48 libs/WMath.o
 .text._Z6randomll
                0x00000000       0x38 libs/WMath.o
 .text._Z3maplllll
                0x00000000       0x8e libs/WMath.o
 .text._Z8makeWordj
                0x00000000        0x2 libs/WMath.o
 .text._Z8makeWordhh
                0x00000000        0xa libs/WMath.o
 .group         0x00000000        0x8 libs/WString.o
 .group         0x00000000        0x8 libs/WString.o
 .group         0x00000000        0x8 libs/WString.o
 .group         0x00000000        0x8 libs/WString.o
 .text          0x00000000        0x0 libs/WString.o
 .bss           0x00000000        0x0 libs/WString.o
 .text.itoa     0x00000000        0x4 libs/WString.o
 .text.ltoa     0x00000000        0x4 libs/WString.o
 .text.utoa     0x00000000        0x4 libs/WString.o
 .text.ultoa    0x00000000        0x4 libs/WString.o
 .text._ZN6StringC2Ec
                0x00000000       0x32 libs/WString.o
 .text._ZN6StringC2Efh
                0x00000000       0x60 libs/WString.o
 .text._ZN6StringC2Edh
                0x00000000       0x60 libs/WString.o
 .text._ZN6String6concatERKS_
                0x00000000        0xe libs/WString.o
 .text._ZN6String6concatEh
                0x00000000       0x5a libs/WString.o
 .text._ZN6String6concatEi
                0x00000000       0x64 libs/WString.o
 .text._ZN6String6concatEj
                0x00000000       0x64 libs/WString.o
 .text._ZN6String6concatEl
                0x00000000       0x66 libs/WString.o
 .text._ZN6String6concatEm
                0x00000000       0x66 libs/WString.o
 .text._ZN6String6concatEf
                0x00000000       0x64 libs/WString.o
 .text._ZN6String6concatEd
                0x00000000       0x64 libs/WString.o
 .text._ZN6String6concatEPK19__FlashStringHelper
                0x00000000       0x5e libs/WString.o
 .text._ZplRK15StringSumHelperc
                0x00000000       0x1c libs/WString.o
 .text._ZplRK15StringSumHelperh
                0x00000000       0x1c libs/WString.o
 .text._ZplRK15StringSumHelperi
                0x00000000       0x1c libs/WString.o
 .text._ZplRK15StringSumHelperj
                0x00000000       0x1c libs/WString.o
 .text._ZplRK15StringSumHelperl
                0x00000000       0x1c libs/WString.o
 .text._ZplRK15StringSumHelperm
                0x00000000       0x1c libs/WString.o
 .text._ZplRK15StringSumHelperf
                0x00000000       0x1c libs/WString.o
 .text._ZplRK15StringSumHelperd
                0x00000000       0x1c libs/WString.o
 .text._ZplRK15StringSumHelperPK19__FlashStringHelper
                0x00000000       0x1c libs/WString.o
 .text._ZNK6String9compareToERKS_
                0x00000000       0x60 libs/WString.o
 .text._ZNK6String6equalsERKS_
                0x00000000       0x26 libs/WString.o
 .text._ZNK6String6equalsEPKc
                0x00000000       0x3e libs/WString.o
 .text._ZNK6StringltERKS_
                0x00000000        0xe libs/WString.o
 .text._ZNK6StringgtERKS_
                0x00000000       0x12 libs/WString.o
 .text._ZNK6StringleERKS_
                0x00000000       0x12 libs/WString.o
 .text._ZNK6StringgeERKS_
                0x00000000       0x10 libs/WString.o
 .text._ZNK6String16equalsIgnoreCaseERKS_
                0x00000000       0x6a libs/WString.o
 .text._ZNK6String10startsWithERKS_j
                0x00000000       0x48 libs/WString.o
 .text._ZNK6String10startsWithERKS_
                0x00000000       0x1e libs/WString.o
 .text._ZNK6String8endsWithERKS_
                0x00000000       0x42 libs/WString.o
 .text._ZN6String9setCharAtEjc
                0x00000000       0x1c libs/WString.o
 .text._ZNK6StringixEj
                0x00000000       0x22 libs/WString.o
 .text._ZNK6String6charAtEj
                0x00000000        0x4 libs/WString.o
 .text._ZNK6String7indexOfERKS_j
                0x00000000       0x38 libs/WString.o
 .text._ZNK6String7indexOfERKS_
                0x00000000        0x8 libs/WString.o
 .text._ZNK6String11lastIndexOfEcj
                0x00000000       0x62 libs/WString.o
 .text._ZNK6String11lastIndexOfEc
                0x00000000        0xe libs/WString.o
 .text._ZNK6String11lastIndexOfERKS_j
                0x00000000       0x9c libs/WString.o
 .text._ZNK6String11lastIndexOfERKS_
                0x00000000       0x14 libs/WString.o
 .rodata.str1.1
                0x00000000        0x1 libs/WString.o
 .text._ZNK6String9substringEjj
                0x00000000       0x8a libs/WString.o
 .text._ZN6String7replaceEcc
                0x00000000       0x1c libs/WString.o
 .text._ZN6String7replaceERKS_S1_
                0x00000000      0x1e6 libs/WString.o
 .text._ZN6String6removeEj
                0x00000000       0x16 libs/WString.o
 .text._ZN6String11toLowerCaseEv
                0x00000000       0x24 libs/WString.o
 .text._ZN6String11toUpperCaseEv
                0x00000000       0x24 libs/WString.o
 .text._ZN6String4trimEv
                0x00000000       0xb4 libs/WString.o
 .text._ZNK6String5toIntEv
                0x00000000       0x16 libs/WString.o
 .text._ZNK6String7toFloatEv
                0x00000000       0x16 libs/WString.o
 .text          0x00000000        0x0 libs/SPI.o
 .bss           0x00000000        0x0 libs/SPI.o
 .text._ZN8SPIClass3endEv
                0x00000000        0x8 libs/SPI.o
 .text._ZN8SPIClass11setBitOrderEh
                0x00000000       0x12 libs/SPI.o
 .text._ZN8SPIClass11setDataModeEh
                0x00000000        0xa libs/SPI.o
 .bss.SPI       0x00000000        0x1 libs/SPI.o
 .text          0x00000000        0x0 libs/twi.o
 .bss           0x00000000        0x0 libs/twi.o
 .text.twi_setAddress
                0x00000000        0x8 libs/twi.o
 .text.twi_readFrom
                0x00000000       0x9c libs/twi.o
 .text.twi_writeTo
                0x00000000       0xba libs/twi.o
 .text.twi_attachSlaveRxEvent
                0x00000000        0xa libs/twi.o
 .text.twi_attachSlaveTxEvent
                0x00000000        0xa libs/twi.o
 .text.twi_reply
                0x00000000       0x14 libs/twi.o
 .group         0x00000000        0x8 libs/Wire.o
 .group         0x00000000        0x8 libs/Wire.o
 .text          0x00000000        0x0 libs/Wire.o
 .bss           0x00000000        0x0 libs/Wire.o
 .text._ZN7TwoWire16onReceiveServiceEPhi
                0x00000000       0x46 libs/Wire.o
 .text._ZN7TwoWire16onRequestServiceEv
                0x00000000       0x18 libs/Wire.o
 .text._ZN7TwoWire5beginEh
                0x00000000       0x26 libs/Wire.o
 .text._ZN7TwoWire5beginEi
                0x00000000        0x4 libs/Wire.o
 .text._ZN7TwoWire11requestFromEhhh
                0x00000000       0x1a libs/Wire.o
 .text._ZN7TwoWire11requestFromEhh
                0x00000000        0x6 libs/Wire.o
 .text._ZN7TwoWire11requestFromEii
                0x00000000        0x6 libs/Wire.o
 .text._ZN7TwoWire11requestFromEiii
                0x00000000        0x4 libs/Wire.o
 .text._ZN7TwoWire17beginTransmissionEh
                0x00000000       0x14 libs/Wire.o
 .text._ZN7TwoWire17beginTransmissionEi
                0x00000000        0x4 libs/Wire.o
 .text._ZN7TwoWire15endTransmissionEh
                0x00000000       0x26 libs/Wire.o
 .text._ZN7TwoWire15endTransmissionEv
                0x00000000        0x6 libs/Wire.o
 .text._ZN7TwoWire9onReceiveEPFviE
                0x00000000        0xa libs/Wire.o
 .text._ZN7TwoWire9onRequestEPFvvE
                0x00000000        0xa libs/Wire.o
 .rodata._ZTV6Stream
                0x00000000       0x10 libs/Wire.o
 .bss._ZN7TwoWire14user_onReceiveE
                0x00000000        0x2 libs/Wire.o
 .bss._ZN7TwoWire14user_onRequestE
                0x00000000        0x2 libs/Wire.o
 .bss._ZN7TwoWire9txAddressE
                0x00000000        0x1 libs/Wire.o
 .text          0x00000000        0x0 libs/bitlash.o
 .bss           0x00000000        0x0 libs/bitlash.o
 .text._Z9countBytec
                0x00000000       0x28 libs/bitlash.o
 .text._Z4stirh
                0x00000000       0x42 libs/bitlash.o
 .text._Z16scriptfileexistsPc
                0x00000000        0x4 libs/bitlash.o
 .text._Z9assignVarhl
                0x00000000       0x16 libs/bitlash.o
 .text._Z6getVarh
                0x00000000       0x16 libs/bitlash.o
 .text._Z6incVarh
                0x00000000       0x26 libs/bitlash.o
 .text._Z11resetOutputv
                0x00000000        0x6 libs/bitlash.o
 .text._Z18serialIsOverriddenv
                0x00000000       0x12 libs/bitlash.o
 .text._Z2spc   0x00000000       0x38 libs/bitlash.o
 .text._Z2spi   0x00000000       0x3a libs/bitlash.o
 .text._Z9tracebackv
                0x00000000       0x2a libs/bitlash.o
 .text._Z5speolc
                0x00000000        0x8 libs/bitlash.o
 .text._Z5speolh
                0x00000000        0x8 libs/bitlash.o
 .text._Z5speoli
                0x00000000        0x8 libs/bitlash.o
 .text._Z5speoll
                0x00000000        0x8 libs/bitlash.o
 .text._Z5speolm
                0x00000000        0x8 libs/bitlash.o
 .text._Z4oopsi
                0x00000000       0x1c libs/bitlash.o
 .text._Z19millisUntilNextTaskv
                0x00000000       0x7c libs/bitlash.o
 .text._Z8saveBytec
                0x00000000       0x34 libs/bitlash.o
 .text._Z8getValuePc
                0x00000000        0xc libs/bitlash.o
 .group         0x00000000        0x8 libs/GSClient.o
 .text          0x00000000        0x0 libs/GSClient.o
 .bss           0x00000000        0x0 libs/GSClient.o
 .rodata._ZTV8GSClient
                0x00000000       0x1c libs/GSClient.o
 .group         0x00000000        0x8 libs/GSCore.o
 .group         0x00000000        0x8 libs/GSCore.o
 .text          0x00000000        0x0 libs/GSCore.o
 .bss           0x00000000        0x0 libs/GSCore.o
 .text._ZN6GSCore3endEv
                0x00000000       0x22 libs/GSCore.o
 .text._ZN6GSCore9writeDataEh9IPAddressjPKhj
                0x00000000      0x116 libs/GSCore.o
 .text._ZN6GSCore16firstCidWithDataEv
                0x00000000       0x50 libs/GSCore.o
 .text._ZN6GSCore12readResponseEPhPjS0_
                0x00000000       0x24 libs/GSCore.o
 .text._ZN6GSCore5beginER6Stream
                0x00000000       0x2e libs/GSCore.o
 .rodata._ZTV9Printable
                0x00000000        0x6 libs/GSCore.o
 .group         0x00000000        0x8 libs/GSModule.o
 .text          0x00000000        0x0 libs/GSModule.o
 .bss           0x00000000        0x0 libs/GSModule.o
 .text._ZN8GSModule10connectUdpERK9IPAddressjj
                0x00000000       0xe2 libs/GSModule.o
 .text._ZN8GSModule9listenUdpEj
                0x00000000       0x8a libs/GSModule.o
 .text._ZN8GSModule9associateEPKcS1_hb
                0x00000000       0x62 libs/GSModule.o
 .text._ZN8GSModule6setDnsERK9IPAddressS2_
                0x00000000       0xe0 libs/GSModule.o
 .text._ZN8GSModule20setAutoConnectClientERK9IPAddressjNS_8ProtocolE
                0x00000000       0x8c libs/GSModule.o
 .text._ZN8GSModule20setAutoConnectServerEjNS_8ProtocolE
                0x00000000       0x2c libs/GSModule.o
 .rodata._ZTV9Printable
                0x00000000        0x6 libs/GSModule.o
 .group         0x00000000        0x8 libs/GSTcpClient.o
 .text          0x00000000        0x0 libs/GSTcpClient.o
 .bss           0x00000000        0x0 libs/GSTcpClient.o
 .group         0x00000000        0x8 libs/GSUdpClient.o
 .text          0x00000000        0x0 libs/GSUdpClient.o
 .bss           0x00000000        0x0 libs/GSUdpClient.o
 .text._ZN11GSUdpClient7connectEPKcj
                0x00000000        0x6 libs/GSUdpClient.o
 .text._ZN11GSUdpClient7connectE9IPAddressj
                0x00000000       0x68 libs/GSUdpClient.o
 .rodata._ZTV11GSUdpClient
                0x00000000       0x1c libs/GSUdpClient.o
 .group         0x00000000        0x8 libs/GSUdpServer.o
 .group         0x00000000        0x8 libs/GSUdpServer.o
 .group         0x00000000        0x8 libs/GSUdpServer.o
 .text          0x00000000        0x0 libs/GSUdpServer.o
 .bss           0x00000000        0x0 libs/GSUdpServer.o
 .text._ZN11GSUdpServer4readEPcj
                0x00000000        0xe libs/GSUdpServer.o
 .text._ZN11GSUdpServer8remoteIPEv
                0x00000000       0x20 libs/GSUdpServer.o
 .text._ZN11GSUdpServer10remotePortEv
                0x00000000        0x8 libs/GSUdpServer.o
 .text._ZN11GSUdpServer11beginPacketE9IPAddressj
                0x00000000       0x26 libs/GSUdpServer.o
 .text._ZN11GSUdpServer9availableEv
                0x00000000        0x8 libs/GSUdpServer.o
 .text._ZN11GSUdpServer5flushEv
                0x00000000        0x2 libs/GSUdpServer.o
 .text._ZN11GSUdpServer5beginEj
                0x00000000       0x20 libs/GSUdpServer.o
 .text._ZN11GSUdpServer11beginPacketEPKcj
                0x00000000       0x40 libs/GSUdpServer.o
 .text._ZN11GSUdpServer9endPacketEv
                0x00000000       0x84 libs/GSUdpServer.o
 .text._ZN11GSUdpServer5writeEh
                0x00000000       0x4a libs/GSUdpServer.o
 .text._ZN11GSUdpServer5writeEPKhj
                0x00000000       0x5c libs/GSUdpServer.o
 .text._ZN11GSUdpServer4stopEv
                0x00000000        0xc libs/GSUdpServer.o
 .text._ZN11GSUdpServer4readEv
                0x00000000       0x34 libs/GSUdpServer.o
 .text._ZN11GSUdpServer4readEPhj
                0x00000000       0x34 libs/GSUdpServer.o
 .text._ZN11GSUdpServer4peekEv
                0x00000000       0x1a libs/GSUdpServer.o
 .text._ZN11GSUdpServer11parsePacketEv
                0x00000000       0x94 libs/GSUdpServer.o
 .rodata._ZTV9Printable
                0x00000000        0x6 libs/GSUdpServer.o
 .rodata._ZTV11GSUdpServer
                0x00000000       0x24 libs/GSUdpServer.o
 .text          0x00000000        0x0 libs/j0g.o
 .bss           0x00000000        0x0 libs/j0g.o
 .rodata.str1.1
                0x00000000        0x7 libs/j0g.o
 .text.j0g_test
                0x00000000       0x44 libs/j0g.o
 .text          0x00000000        0x0 libs/js0n.o
 .bss           0x00000000        0x0 libs/js0n.o
 .text          0x00000000        0x0 libs/nwk.o
 .bss           0x00000000        0x0 libs/nwk.o
 .text.NWK_Busy
                0x00000000       0x12 libs/nwk.o
 .text.NWK_Lock
                0x00000000       0x10 libs/nwk.o
 .text.NWK_Unlock
                0x00000000       0x10 libs/nwk.o
 .text.NWK_SleepReq
                0x00000000        0x6 libs/nwk.o
 .text.NWK_WakeupReq
                0x00000000        0x6 libs/nwk.o
 .rodata        0x00000000        0x9 libs/nwk.o
 .text.NWK_LinearizeLqi
                0x00000000       0x5c libs/nwk.o
 .text          0x00000000        0x0 libs/nwkDataReq.o
 .bss           0x00000000        0x0 libs/nwkDataReq.o
 .text          0x00000000        0x0 libs/nwkFrame.o
 .bss           0x00000000        0x0 libs/nwkFrame.o
 .text          0x00000000        0x0 libs/nwkGroup.o
 .bss           0x00000000        0x0 libs/nwkGroup.o
 .text.NWK_GetGroups
                0x00000000        0x6 libs/nwkGroup.o
 .text          0x00000000        0x0 libs/nwkRoute.o
 .bss           0x00000000        0x0 libs/nwkRoute.o
 .text          0x00000000        0x0 libs/nwkRouteDiscovery.o
 .bss           0x00000000        0x0 libs/nwkRouteDiscovery.o
 .text          0x00000000        0x0 libs/nwkRx.o
 .bss           0x00000000        0x0 libs/nwkRx.o
 .text          0x00000000        0x0 libs/nwkSecurity.o
 .bss           0x00000000        0x0 libs/nwkSecurity.o
 .text          0x00000000        0x0 libs/nwkTx.o
 .bss           0x00000000        0x0 libs/nwkTx.o
 .text          0x00000000        0x0 libs/phy.o
 .bss           0x00000000        0x0 libs/phy.o
 .text.PHY_SetBand
                0x00000000        0xa libs/phy.o
 .text.PHY_Sleep
                0x00000000       0x18 libs/phy.o
 .text.PHY_Wakeup
                0x00000000       0x16 libs/phy.o
 .text          0x00000000        0x0 libs/sys.o
 .bss           0x00000000        0x0 libs/sys.o
 .text          0x00000000        0x0 libs/sysEncrypt.o
 .bss           0x00000000        0x0 libs/sysEncrypt.o
 .text          0x00000000        0x0 libs/sysTimer.o
 .bss           0x00000000        0x0 libs/sysTimer.o
 .text          0x00000000        0x0 libs/Pbbe.o
 .bss           0x00000000        0x0 libs/Pbbe.o
 .text._ZN4Pbbe12parseStringAEPKNS_6EepromEj
                0x00000000       0x42 libs/Pbbe.o
 .text._ZN4Pbbe16uniqueIdChecksumEPh
                0x00000000       0x46 libs/Pbbe.o
 .text._ZN4Pbbe10isReadonlyEPKNS_6EepromEj
                0x00000000       0x10 libs/Pbbe.o
 .text          0x00000000        0x0 libs/PBBP.o
 .bss           0x00000000        0x0 libs/PBBP.o
 .text          0x00000000        0x0 libs/Backpack.o
 .bss           0x00000000        0x0 libs/Backpack.o
 .text          0x00000000        0x0 libs/Backpacks.o
 .bss           0x00000000        0x0 libs/Backpacks.o
 .text._ZN12BackpackInfo10freeEepromEv
                0x00000000       0x18 libs/Backpacks.o
 .text._ZN12BackpackInfo10getAddressEv
                0x00000000       0x1a libs/Backpacks.o
 .group         0x00000000        0x8 libs/WiFiBackpack.o
 .group         0x00000000        0x8 libs/WiFiBackpack.o
 .text          0x00000000        0x0 libs/WiFiBackpack.o
 .bss           0x00000000        0x0 libs/WiFiBackpack.o
 .rodata._ZTV6Stream
                0x00000000       0x10 libs/WiFiBackpack.o
 .rodata._ZTV6Client
                0x00000000       0x1c libs/WiFiBackpack.o
 .text          0x00000000        0x0 libs/HqInfo.o
 .bss           0x00000000        0x0 libs/HqInfo.o
 .text          0x00000000        0x0 libs/key.o
 .bss           0x00000000        0x0 libs/key.o
 .group         0x00000000        0x8 libs/Flash.o
 .text          0x00000000        0x0 libs/Flash.o
 .bss           0x00000000        0x0 libs/Flash.o
 .text._ZN8SPIClass8transferEh
                0x00000000        0xc libs/Flash.o
 .text._ZN10FlashClass5beginEiR8SPIClass
                0x00000000       0x68 libs/Flash.o
 .text._ZN10FlashClassC2EiR8SPIClass
                0x00000000        0xe libs/Flash.o
 .text._ZN10FlashClass3endEv
                0x00000000       0x16 libs/Flash.o
 .text._ZN10FlashClass6isBusyEv
                0x00000000       0x42 libs/Flash.o
 .text._ZN10FlashClass4infoEPhPj
                0x00000000       0xb0 libs/Flash.o
 .text._ZN10FlashClass9availableEv
                0x00000000       0x50 libs/Flash.o
 .text._ZN10FlashClass4readEmPvm
                0x00000000       0xac libs/Flash.o
 .text._ZN10FlashClass11writeEnableEv
                0x00000000       0x36 libs/Flash.o
 .text._ZN10FlashClass12writeDisableEv
                0x00000000       0x36 libs/Flash.o
 .text._ZN10FlashClass5writeEmPvh
                0x00000000       0x80 libs/Flash.o
 .text._ZN10FlashClass14subSectorEraseEm
                0x00000000       0x5a libs/Flash.o
 .text._ZN10FlashClass11sectorEraseEm
                0x00000000       0x5a libs/Flash.o
 .text._ZN10FlashClass9bulkEraseEv
                0x00000000       0x36 libs/Flash.o
 .text          0x00000000        0x0 libs/halFuelGauge.o
 .bss           0x00000000        0x0 libs/halFuelGauge.o
 .text.HAL_FuelGaugeQuickStart
                0x00000000        0x2 libs/halFuelGauge.o
 .text.HAL_FuelGaugeGetAlertReason
                0x00000000        0x4 libs/halFuelGauge.o
 .text.HAL_FuelGaugeClearAlert
                0x00000000        0x2 libs/halFuelGauge.o
 .text.HAL_FuelGaugei2cRead16
                0x00000000        0x6 libs/halFuelGauge.o
 .text.HAL_FuelGaugei2cWrite16
                0x00000000        0x2 libs/halFuelGauge.o
 .text          0x00000000        0x0 libs/halRgbLed.o
 .bss           0x00000000        0x0 libs/halRgbLed.o
 .text._ZN9HalRgbLed6enableEv
                0x00000000        0x8 libs/halRgbLed.o
 .text._ZN9HalRgbLed9isEnabledEv
                0x00000000        0x6 libs/halRgbLed.o
 .text._ZN9HalRgbLed14setBlinkValuesEsss
                0x00000000       0x10 libs/halRgbLed.o
 .text._ZN9HalRgbLed7disableEv
                0x00000000       0x12 libs/halRgbLed.o
 .text          0x00000000        0x0 libs/halTemperature.o
 .bss           0x00000000        0x0 libs/halTemperature.o
 .text          0x00000000        0x0 libs/Pinoccio.o
 .bss           0x00000000        0x0 libs/Pinoccio.o
 .text._ZN13PinoccioClass9goToSleepEm
                0x00000000        0x2 libs/Pinoccio.o
 .text._ZN13PinoccioClass18enableExternalArefEv
                0x00000000        0xc libs/Pinoccio.o
 .text._ZN13PinoccioClass19disableExternalArefEv
                0x00000000        0xc libs/Pinoccio.o
 .text._ZN13PinoccioClass15getExternalArefEv
                0x00000000        0x6 libs/Pinoccio.o
 .text._ZN13PinoccioClass13sendStateToHQEv
                0x00000000        0x2 libs/Pinoccio.o
 .text._ZN13PinoccioClass10getTxPowerEv
                0x00000000        0x6 libs/Pinoccio.o
 .text._ZN13PinoccioClass11getDataRateEv
                0x00000000        0x6 libs/Pinoccio.o
 .text          0x00000000        0x0 libs/Scout.o
 .bss           0x00000000        0x0 libs/Scout.o
 .text._ZN13PinoccioScout5delayEm
                0x00000000        0xc libs/Scout.o
 .text._ZN13PinoccioScout23isBatteryAlarmTriggeredEv
                0x00000000        0xa libs/Scout.o
 .group         0x00000000        0x8 libs/ScoutHandler.o
 .group         0x00000000        0x8 libs/ScoutHandler.o
 .text          0x00000000        0x0 libs/ScoutHandler.o
 .bss           0x00000000        0x0 libs/ScoutHandler.o
 .group         0x00000000        0x8 libs/Shell.o
 .text          0x00000000        0x0 libs/Shell.o
 .bss           0x00000000        0x0 libs/Shell.o
 .text._ZN13PinoccioShellC2Ev
                0x00000000        0x8 libs/Shell.o
 .text._ZN13PinoccioShellD2Ev
                0x00000000        0x2 libs/Shell.o
 .text._ZN13PinoccioShell12disableShellEv
                0x00000000        0x6 libs/Shell.o
 .text.exit._GLOBAL__sub_D_Shell
                0x00000000        0x2 libs/Shell.o
 .text          0x00000000        0x0 libs/memdebug.o
 .bss           0x00000000        0x0 libs/memdebug.o
 .text.getNumberOfBlocksInFreeList
                0x00000000       0x1c libs/memdebug.o
 .text.getFreeListSize
                0x00000000       0x26 libs/memdebug.o
 .text          0x00000000        0x0 libs/StringBuffer.o
 .bss           0x00000000        0x0 libs/StringBuffer.o
 .text          0x00000000        0x0 Bootstrap.o
 .bss           0x00000000        0x0 Bootstrap.o
 .text          0x00000000        0x0 c:/program files/atmel/atmel toolchain/avr8 gcc/native/3.4.1051/avr8-gnu-toolchain/bin/../lib/gcc/avr/4.8.1/../../../../avr/lib/avr6\libm.a(addsf3.o)
 .bss           0x00000000        0x0 c:/program files/atmel/atmel toolchain/avr8 gcc/native/3.4.1051/avr8-gnu-toolchain/bin/../lib/gcc/avr/4.8.1/../../../../avr/lib/avr6\libm.a(addsf3.o)
 .text          0x00000000        0x0 c:/program files/atmel/atmel toolchain/avr8 gcc/native/3.4.1051/avr8-gnu-toolchain/bin/../lib/gcc/avr/4.8.1/../../../../avr/lib/avr6\libm.a(addsf3x.o)
 .bss           0x00000000        0x0 c:/program files/atmel/atmel toolchain/avr8 gcc/native/3.4.1051/avr8-gnu-toolchain/bin/../lib/gcc/avr/4.8.1/../../../../avr/lib/avr6\libm.a(addsf3x.o)
 .text          0x00000000        0x0 c:/program files/atmel/atmel toolchain/avr8 gcc/native/3.4.1051/avr8-gnu-toolchain/bin/../lib/gcc/avr/4.8.1/../../../../avr/lib/avr6\libm.a(cmpsf2.o)
 .bss           0x00000000        0x0 c:/program files/atmel/atmel toolchain/avr8 gcc/native/3.4.1051/avr8-gnu-toolchain/bin/../lib/gcc/avr/4.8.1/../../../../avr/lib/avr6\libm.a(cmpsf2.o)
 .text          0x00000000        0x0 c:/program files/atmel/atmel toolchain/avr8 gcc/native/3.4.1051/avr8-gnu-toolchain/bin/../lib/gcc/avr/4.8.1/../../../../avr/lib/avr6\libm.a(divsf3.o)
 .bss           0x00000000        0x0 c:/program files/atmel/atmel toolchain/avr8 gcc/native/3.4.1051/avr8-gnu-toolchain/bin/../lib/gcc/avr/4.8.1/../../../../avr/lib/avr6\libm.a(divsf3.o)
 .text          0x00000000        0x0 c:/program files/atmel/atmel toolchain/avr8 gcc/native/3.4.1051/avr8-gnu-toolchain/bin/../lib/gcc/avr/4.8.1/../../../../avr/lib/avr6\libm.a(divsf3x.o)
 .bss           0x00000000        0x0 c:/program files/atmel/atmel toolchain/avr8 gcc/native/3.4.1051/avr8-gnu-toolchain/bin/../lib/gcc/avr/4.8.1/../../../../avr/lib/avr6\libm.a(divsf3x.o)
 .text          0x00000000        0x0 c:/program files/atmel/atmel toolchain/avr8 gcc/native/3.4.1051/avr8-gnu-toolchain/bin/../lib/gcc/avr/4.8.1/../../../../avr/lib/avr6\libm.a(fixsfsi.o)
 .bss           0x00000000        0x0 c:/program files/atmel/atmel toolchain/avr8 gcc/native/3.4.1051/avr8-gnu-toolchain/bin/../lib/gcc/avr/4.8.1/../../../../avr/lib/avr6\libm.a(fixsfsi.o)
 .text          0x00000000        0x0 c:/program files/atmel/atmel toolchain/avr8 gcc/native/3.4.1051/avr8-gnu-toolchain/bin/../lib/gcc/avr/4.8.1/../../../../avr/lib/avr6\libm.a(fixunssfsi.o)
 .bss           0x00000000        0x0 c:/program files/atmel/atmel toolchain/avr8 gcc/native/3.4.1051/avr8-gnu-toolchain/bin/../lib/gcc/avr/4.8.1/../../../../avr/lib/avr6\libm.a(fixunssfsi.o)
 .text          0x00000000        0x0 c:/program files/atmel/atmel toolchain/avr8 gcc/native/3.4.1051/avr8-gnu-toolchain/bin/../lib/gcc/avr/4.8.1/../../../../avr/lib/avr6\libm.a(floatsisf.o)
 .bss           0x00000000        0x0 c:/program files/atmel/atmel toolchain/avr8 gcc/native/3.4.1051/avr8-gnu-toolchain/bin/../lib/gcc/avr/4.8.1/../../../../avr/lib/avr6\libm.a(floatsisf.o)
 .text          0x00000000        0x0 c:/program files/atmel/atmel toolchain/avr8 gcc/native/3.4.1051/avr8-gnu-toolchain/bin/../lib/gcc/avr/4.8.1/../../../../avr/lib/avr6\libm.a(fp_cmp.o)
 .bss           0x00000000        0x0 c:/program files/atmel/atmel toolchain/avr8 gcc/native/3.4.1051/avr8-gnu-toolchain/bin/../lib/gcc/avr/4.8.1/../../../../avr/lib/avr6\libm.a(fp_cmp.o)
 .text          0x00000000        0x0 c:/program files/atmel/atmel toolchain/avr8 gcc/native/3.4.1051/avr8-gnu-toolchain/bin/../lib/gcc/avr/4.8.1/../../../../avr/lib/avr6\libm.a(fp_inf.o)
 .bss           0x00000000        0x0 c:/program files/atmel/atmel toolchain/avr8 gcc/native/3.4.1051/avr8-gnu-toolchain/bin/../lib/gcc/avr/4.8.1/../../../../avr/lib/avr6\libm.a(fp_inf.o)
 .text          0x00000000        0x0 c:/program files/atmel/atmel toolchain/avr8 gcc/native/3.4.1051/avr8-gnu-toolchain/bin/../lib/gcc/avr/4.8.1/../../../../avr/lib/avr6\libm.a(fp_nan.o)
 .bss           0x00000000        0x0 c:/program files/atmel/atmel toolchain/avr8 gcc/native/3.4.1051/avr8-gnu-toolchain/bin/../lib/gcc/avr/4.8.1/../../../../avr/lib/avr6\libm.a(fp_nan.o)
 .text          0x00000000        0x0 c:/program files/atmel/atmel toolchain/avr8 gcc/native/3.4.1051/avr8-gnu-toolchain/bin/../lib/gcc/avr/4.8.1/../../../../avr/lib/avr6\libm.a(fp_pscA.o)
 .bss           0x00000000        0x0 c:/program files/atmel/atmel toolchain/avr8 gcc/native/3.4.1051/avr8-gnu-toolchain/bin/../lib/gcc/avr/4.8.1/../../../../avr/lib/avr6\libm.a(fp_pscA.o)
 .text          0x00000000        0x0 c:/program files/atmel/atmel toolchain/avr8 gcc/native/3.4.1051/avr8-gnu-toolchain/bin/../lib/gcc/avr/4.8.1/../../../../avr/lib/avr6\libm.a(fp_pscB.o)
 .bss           0x00000000        0x0 c:/program files/atmel/atmel toolchain/avr8 gcc/native/3.4.1051/avr8-gnu-toolchain/bin/../lib/gcc/avr/4.8.1/../../../../avr/lib/avr6\libm.a(fp_pscB.o)
 .text          0x00000000        0x0 c:/program files/atmel/atmel toolchain/avr8 gcc/native/3.4.1051/avr8-gnu-toolchain/bin/../lib/gcc/avr/4.8.1/../../../../avr/lib/avr6\libm.a(fp_round.o)
 .bss           0x00000000        0x0 c:/program files/atmel/atmel toolchain/avr8 gcc/native/3.4.1051/avr8-gnu-toolchain/bin/../lib/gcc/avr/4.8.1/../../../../avr/lib/avr6\libm.a(fp_round.o)
 .text          0x00000000        0x0 c:/program files/atmel/atmel toolchain/avr8 gcc/native/3.4.1051/avr8-gnu-toolchain/bin/../lib/gcc/avr/4.8.1/../../../../avr/lib/avr6\libm.a(fp_split3.o)
 .bss           0x00000000        0x0 c:/program files/atmel/atmel toolchain/avr8 gcc/native/3.4.1051/avr8-gnu-toolchain/bin/../lib/gcc/avr/4.8.1/../../../../avr/lib/avr6\libm.a(fp_split3.o)
 .text          0x00000000        0x0 c:/program files/atmel/atmel toolchain/avr8 gcc/native/3.4.1051/avr8-gnu-toolchain/bin/../lib/gcc/avr/4.8.1/../../../../avr/lib/avr6\libm.a(fp_zero.o)
 .bss           0x00000000        0x0 c:/program files/atmel/atmel toolchain/avr8 gcc/native/3.4.1051/avr8-gnu-toolchain/bin/../lib/gcc/avr/4.8.1/../../../../avr/lib/avr6\libm.a(fp_zero.o)
 .text          0x00000000        0x0 c:/program files/atmel/atmel toolchain/avr8 gcc/native/3.4.1051/avr8-gnu-toolchain/bin/../lib/gcc/avr/4.8.1/../../../../avr/lib/avr6\libm.a(gesf2.o)
 .bss           0x00000000        0x0 c:/program files/atmel/atmel toolchain/avr8 gcc/native/3.4.1051/avr8-gnu-toolchain/bin/../lib/gcc/avr/4.8.1/../../../../avr/lib/avr6\libm.a(gesf2.o)
 .text          0x00000000        0x0 c:/program files/atmel/atmel toolchain/avr8 gcc/native/3.4.1051/avr8-gnu-toolchain/bin/../lib/gcc/avr/4.8.1/../../../../avr/lib/avr6\libm.a(mulsf3.o)
 .bss           0x00000000        0x0 c:/program files/atmel/atmel toolchain/avr8 gcc/native/3.4.1051/avr8-gnu-toolchain/bin/../lib/gcc/avr/4.8.1/../../../../avr/lib/avr6\libm.a(mulsf3.o)
 .text          0x00000000        0x0 c:/program files/atmel/atmel toolchain/avr8 gcc/native/3.4.1051/avr8-gnu-toolchain/bin/../lib/gcc/avr/4.8.1/../../../../avr/lib/avr6\libm.a(mulsf3x.o)
 .bss           0x00000000        0x0 c:/program files/atmel/atmel toolchain/avr8 gcc/native/3.4.1051/avr8-gnu-toolchain/bin/../lib/gcc/avr/4.8.1/../../../../avr/lib/avr6\libm.a(mulsf3x.o)
 .text          0x00000000        0x0 c:/program files/atmel/atmel toolchain/avr8 gcc/native/3.4.1051/avr8-gnu-toolchain/bin/../lib/gcc/avr/4.8.1/../../../../avr/lib/avr6\libm.a(unordsf2.o)
 .bss           0x00000000        0x0 c:/program files/atmel/atmel toolchain/avr8 gcc/native/3.4.1051/avr8-gnu-toolchain/bin/../lib/gcc/avr/4.8.1/../../../../avr/lib/avr6\libm.a(unordsf2.o)
 .text          0x00000000        0x0 ../../../../pinoccio16mhz\libcore.a(malloc.c.o)
 .bss           0x00000000        0x0 ../../../../pinoccio16mhz\libcore.a(malloc.c.o)
 .text          0x00000000        0x0 ../../../../pinoccio16mhz\libcore.a(realloc.c.o)
 .bss           0x00000000        0x0 ../../../../pinoccio16mhz\libcore.a(realloc.c.o)
 .text          0x00000000        0x0 c:/program files/atmel/atmel toolchain/avr8 gcc/native/3.4.1051/avr8-gnu-toolchain/bin/../lib/gcc/avr/4.8.1/avr6\libgcc.a(_mulsi3.o)
 .bss           0x00000000        0x0 c:/program files/atmel/atmel toolchain/avr8 gcc/native/3.4.1051/avr8-gnu-toolchain/bin/../lib/gcc/avr/4.8.1/avr6\libgcc.a(_mulsi3.o)
 .text.libgcc.div
                0x00000000        0x0 c:/program files/atmel/atmel toolchain/avr8 gcc/native/3.4.1051/avr8-gnu-toolchain/bin/../lib/gcc/avr/4.8.1/avr6\libgcc.a(_mulsi3.o)
 .text.libgcc   0x00000000        0x0 c:/program files/atmel/atmel toolchain/avr8 gcc/native/3.4.1051/avr8-gnu-toolchain/bin/../lib/gcc/avr/4.8.1/avr6\libgcc.a(_mulsi3.o)
 .text.libgcc.prologue
                0x00000000        0x0 c:/program files/atmel/atmel toolchain/avr8 gcc/native/3.4.1051/avr8-gnu-toolchain/bin/../lib/gcc/avr/4.8.1/avr6\libgcc.a(_mulsi3.o)
 .text.libgcc.builtins
                0x00000000        0x0 c:/program files/atmel/atmel toolchain/avr8 gcc/native/3.4.1051/avr8-gnu-toolchain/bin/../lib/gcc/avr/4.8.1/avr6\libgcc.a(_mulsi3.o)
 .text.libgcc.fmul
                0x00000000        0x0 c:/program files/atmel/atmel toolchain/avr8 gcc/native/3.4.1051/avr8-gnu-toolchain/bin/../lib/gcc/avr/4.8.1/avr6\libgcc.a(_mulsi3.o)
 .text.libgcc.fixed
                0x00000000        0x0 c:/program files/atmel/atmel toolchain/avr8 gcc/native/3.4.1051/avr8-gnu-toolchain/bin/../lib/gcc/avr/4.8.1/avr6\libgcc.a(_mulsi3.o)
 .text          0x00000000        0x0 c:/program files/atmel/atmel toolchain/avr8 gcc/native/3.4.1051/avr8-gnu-toolchain/bin/../lib/gcc/avr/4.8.1/avr6\libgcc.a(_udivmodsi4.o)
 .bss           0x00000000        0x0 c:/program files/atmel/atmel toolchain/avr8 gcc/native/3.4.1051/avr8-gnu-toolchain/bin/../lib/gcc/avr/4.8.1/avr6\libgcc.a(_udivmodsi4.o)
 .text.libgcc.mul
                0x00000000        0x0 c:/program files/atmel/atmel toolchain/avr8 gcc/native/3.4.1051/avr8-gnu-toolchain/bin/../lib/gcc/avr/4.8.1/avr6\libgcc.a(_udivmodsi4.o)
 .text.libgcc   0x00000000        0x0 c:/program files/atmel/atmel toolchain/avr8 gcc/native/3.4.1051/avr8-gnu-toolchain/bin/../lib/gcc/avr/4.8.1/avr6\libgcc.a(_udivmodsi4.o)
 .text.libgcc.prologue
                0x00000000        0x0 c:/program files/atmel/atmel toolchain/avr8 gcc/native/3.4.1051/avr8-gnu-toolchain/bin/../lib/gcc/avr/4.8.1/avr6\libgcc.a(_udivmodsi4.o)
 .text.libgcc.builtins
                0x00000000        0x0 c:/program files/atmel/atmel toolchain/avr8 gcc/native/3.4.1051/avr8-gnu-toolchain/bin/../lib/gcc/avr/4.8.1/avr6\libgcc.a(_udivmodsi4.o)
 .text.libgcc.fmul
                0x00000000        0x0 c:/program files/atmel/atmel toolchain/avr8 gcc/native/3.4.1051/avr8-gnu-toolchain/bin/../lib/gcc/avr/4.8.1/avr6\libgcc.a(_udivmodsi4.o)
 .text.libgcc.fixed
                0x00000000        0x0 c:/program files/atmel/atmel toolchain/avr8 gcc/native/3.4.1051/avr8-gnu-toolchain/bin/../lib/gcc/avr/4.8.1/avr6\libgcc.a(_udivmodsi4.o)
 .text          0x00000000        0x0 c:/program files/atmel/atmel toolchain/avr8 gcc/native/3.4.1051/avr8-gnu-toolchain/bin/../lib/gcc/avr/4.8.1/avr6\libgcc.a(_divmodsi4.o)
 .bss           0x00000000        0x0 c:/program files/atmel/atmel toolchain/avr8 gcc/native/3.4.1051/avr8-gnu-toolchain/bin/../lib/gcc/avr/4.8.1/avr6\libgcc.a(_divmodsi4.o)
 .text.libgcc.mul
                0x00000000        0x0 c:/program files/atmel/atmel toolchain/avr8 gcc/native/3.4.1051/avr8-gnu-toolchain/bin/../lib/gcc/avr/4.8.1/avr6\libgcc.a(_divmodsi4.o)
 .text.libgcc   0x00000000        0x0 c:/program files/atmel/atmel toolchain/avr8 gcc/native/3.4.1051/avr8-gnu-toolchain/bin/../lib/gcc/avr/4.8.1/avr6\libgcc.a(_divmodsi4.o)
 .text.libgcc.prologue
                0x00000000        0x0 c:/program files/atmel/atmel toolchain/avr8 gcc/native/3.4.1051/avr8-gnu-toolchain/bin/../lib/gcc/avr/4.8.1/avr6\libgcc.a(_divmodsi4.o)
 .text.libgcc.builtins
                0x00000000        0x0 c:/program files/atmel/atmel toolchain/avr8 gcc/native/3.4.1051/avr8-gnu-toolchain/bin/../lib/gcc/avr/4.8.1/avr6\libgcc.a(_divmodsi4.o)
 .text.libgcc.fmul
                0x00000000        0x0 c:/program files/atmel/atmel toolchain/avr8 gcc/native/3.4.1051/avr8-gnu-toolchain/bin/../lib/gcc/avr/4.8.1/avr6\libgcc.a(_divmodsi4.o)
 .text.libgcc.fixed
                0x00000000        0x0 c:/program files/atmel/atmel toolchain/avr8 gcc/native/3.4.1051/avr8-gnu-toolchain/bin/../lib/gcc/avr/4.8.1/avr6\libgcc.a(_divmodsi4.o)
 .text          0x00000000        0x0 c:/program files/atmel/atmel toolchain/avr8 gcc/native/3.4.1051/avr8-gnu-toolchain/bin/../lib/gcc/avr/4.8.1/avr6\libgcc.a(_negsi2.o)
 .bss           0x00000000        0x0 c:/program files/atmel/atmel toolchain/avr8 gcc/native/3.4.1051/avr8-gnu-toolchain/bin/../lib/gcc/avr/4.8.1/avr6\libgcc.a(_negsi2.o)
 .text.libgcc.mul
                0x00000000        0x0 c:/program files/atmel/atmel toolchain/avr8 gcc/native/3.4.1051/avr8-gnu-toolchain/bin/../lib/gcc/avr/4.8.1/avr6\libgcc.a(_negsi2.o)
 .text.libgcc   0x00000000        0x0 c:/program files/atmel/atmel toolchain/avr8 gcc/native/3.4.1051/avr8-gnu-toolchain/bin/../lib/gcc/avr/4.8.1/avr6\libgcc.a(_negsi2.o)
 .text.libgcc.prologue
                0x00000000        0x0 c:/program files/atmel/atmel toolchain/avr8 gcc/native/3.4.1051/avr8-gnu-toolchain/bin/../lib/gcc/avr/4.8.1/avr6\libgcc.a(_negsi2.o)
 .text.libgcc.builtins
                0x00000000        0x0 c:/program files/atmel/atmel toolchain/avr8 gcc/native/3.4.1051/avr8-gnu-toolchain/bin/../lib/gcc/avr/4.8.1/avr6\libgcc.a(_negsi2.o)
 .text.libgcc.fmul
                0x00000000        0x0 c:/program files/atmel/atmel toolchain/avr8 gcc/native/3.4.1051/avr8-gnu-toolchain/bin/../lib/gcc/avr/4.8.1/avr6\libgcc.a(_negsi2.o)
 .text.libgcc.fixed
                0x00000000        0x0 c:/program files/atmel/atmel toolchain/avr8 gcc/native/3.4.1051/avr8-gnu-toolchain/bin/../lib/gcc/avr/4.8.1/avr6\libgcc.a(_negsi2.o)
 .text          0x00000000        0x0 c:/program files/atmel/atmel toolchain/avr8 gcc/native/3.4.1051/avr8-gnu-toolchain/bin/../lib/gcc/avr/4.8.1/avr6\libgcc.a(_exit.o)
 .bss           0x00000000        0x0 c:/program files/atmel/atmel toolchain/avr8 gcc/native/3.4.1051/avr8-gnu-toolchain/bin/../lib/gcc/avr/4.8.1/avr6\libgcc.a(_exit.o)
 .text.libgcc.mul
                0x00000000        0x0 c:/program files/atmel/atmel toolchain/avr8 gcc/native/3.4.1051/avr8-gnu-toolchain/bin/../lib/gcc/avr/4.8.1/avr6\libgcc.a(_exit.o)
 .text.libgcc.div
                0x00000000        0x0 c:/program files/atmel/atmel toolchain/avr8 gcc/native/3.4.1051/avr8-gnu-toolchain/bin/../lib/gcc/avr/4.8.1/avr6\libgcc.a(_exit.o)
 .text.libgcc   0x00000000        0x0 c:/program files/atmel/atmel toolchain/avr8 gcc/native/3.4.1051/avr8-gnu-toolchain/bin/../lib/gcc/avr/4.8.1/avr6\libgcc.a(_exit.o)
 .text.libgcc.prologue
                0x00000000        0x0 c:/program files/atmel/atmel toolchain/avr8 gcc/native/3.4.1051/avr8-gnu-toolchain/bin/../lib/gcc/avr/4.8.1/avr6\libgcc.a(_exit.o)
 .text.libgcc.builtins
                0x00000000        0x0 c:/program files/atmel/atmel toolchain/avr8 gcc/native/3.4.1051/avr8-gnu-toolchain/bin/../lib/gcc/avr/4.8.1/avr6\libgcc.a(_exit.o)
 .text.libgcc.fmul
                0x00000000        0x0 c:/program files/atmel/atmel toolchain/avr8 gcc/native/3.4.1051/avr8-gnu-toolchain/bin/../lib/gcc/avr/4.8.1/avr6\libgcc.a(_exit.o)
 .text.libgcc.fixed
                0x00000000        0x0 c:/program files/atmel/atmel toolchain/avr8 gcc/native/3.4.1051/avr8-gnu-toolchain/bin/../lib/gcc/avr/4.8.1/avr6\libgcc.a(_exit.o)
 .text          0x00000000        0x0 c:/program files/atmel/atmel toolchain/avr8 gcc/native/3.4.1051/avr8-gnu-toolchain/bin/../lib/gcc/avr/4.8.1/avr6\libgcc.a(_tablejump.o)
 .bss           0x00000000        0x0 c:/program files/atmel/atmel toolchain/avr8 gcc/native/3.4.1051/avr8-gnu-toolchain/bin/../lib/gcc/avr/4.8.1/avr6\libgcc.a(_tablejump.o)
 .text.libgcc.mul
                0x00000000        0x0 c:/program files/atmel/atmel toolchain/avr8 gcc/native/3.4.1051/avr8-gnu-toolchain/bin/../lib/gcc/avr/4.8.1/avr6\libgcc.a(_tablejump.o)
 .text.libgcc.div
                0x00000000        0x0 c:/program files/atmel/atmel toolchain/avr8 gcc/native/3.4.1051/avr8-gnu-toolchain/bin/../lib/gcc/avr/4.8.1/avr6\libgcc.a(_tablejump.o)
 .text.libgcc.prologue
                0x00000000        0x0 c:/program files/atmel/atmel toolchain/avr8 gcc/native/3.4.1051/avr8-gnu-toolchain/bin/../lib/gcc/avr/4.8.1/avr6\libgcc.a(_tablejump.o)
 .text.libgcc.builtins
                0x00000000        0x0 c:/program files/atmel/atmel toolchain/avr8 gcc/native/3.4.1051/avr8-gnu-toolchain/bin/../lib/gcc/avr/4.8.1/avr6\libgcc.a(_tablejump.o)
 .text.libgcc.fmul
                0x00000000        0x0 c:/program files/atmel/atmel toolchain/avr8 gcc/native/3.4.1051/avr8-gnu-toolchain/bin/../lib/gcc/avr/4.8.1/avr6\libgcc.a(_tablejump.o)
 .text.libgcc.fixed
                0x00000000        0x0 c:/program files/atmel/atmel toolchain/avr8 gcc/native/3.4.1051/avr8-gnu-toolchain/bin/../lib/gcc/avr/4.8.1/avr6\libgcc.a(_tablejump.o)
 .text          0x00000000        0x0 c:/program files/atmel/atmel toolchain/avr8 gcc/native/3.4.1051/avr8-gnu-toolchain/bin/../lib/gcc/avr/4.8.1/avr6\libgcc.a(_copy_data.o)
 .bss           0x00000000        0x0 c:/program files/atmel/atmel toolchain/avr8 gcc/native/3.4.1051/avr8-gnu-toolchain/bin/../lib/gcc/avr/4.8.1/avr6\libgcc.a(_copy_data.o)
 .text.libgcc.mul
                0x00000000        0x0 c:/program files/atmel/atmel toolchain/avr8 gcc/native/3.4.1051/avr8-gnu-toolchain/bin/../lib/gcc/avr/4.8.1/avr6\libgcc.a(_copy_data.o)
 .text.libgcc.div
                0x00000000        0x0 c:/program files/atmel/atmel toolchain/avr8 gcc/native/3.4.1051/avr8-gnu-toolchain/bin/../lib/gcc/avr/4.8.1/avr6\libgcc.a(_copy_data.o)
 .text.libgcc   0x00000000        0x0 c:/program files/atmel/atmel toolchain/avr8 gcc/native/3.4.1051/avr8-gnu-toolchain/bin/../lib/gcc/avr/4.8.1/avr6\libgcc.a(_copy_data.o)
 .text.libgcc.prologue
                0x00000000        0x0 c:/program files/atmel/atmel toolchain/avr8 gcc/native/3.4.1051/avr8-gnu-toolchain/bin/../lib/gcc/avr/4.8.1/avr6\libgcc.a(_copy_data.o)
 .text.libgcc.builtins
                0x00000000        0x0 c:/program files/atmel/atmel toolchain/avr8 gcc/native/3.4.1051/avr8-gnu-toolchain/bin/../lib/gcc/avr/4.8.1/avr6\libgcc.a(_copy_data.o)
 .text.libgcc.fmul
                0x00000000        0x0 c:/program files/atmel/atmel toolchain/avr8 gcc/native/3.4.1051/avr8-gnu-toolchain/bin/../lib/gcc/avr/4.8.1/avr6\libgcc.a(_copy_data.o)
 .text.libgcc.fixed
                0x00000000        0x0 c:/program files/atmel/atmel toolchain/avr8 gcc/native/3.4.1051/avr8-gnu-toolchain/bin/../lib/gcc/avr/4.8.1/avr6\libgcc.a(_copy_data.o)
 .text          0x00000000        0x0 c:/program files/atmel/atmel toolchain/avr8 gcc/native/3.4.1051/avr8-gnu-toolchain/bin/../lib/gcc/avr/4.8.1/avr6\libgcc.a(_clear_bss.o)
 .bss           0x00000000        0x0 c:/program files/atmel/atmel toolchain/avr8 gcc/native/3.4.1051/avr8-gnu-toolchain/bin/../lib/gcc/avr/4.8.1/avr6\libgcc.a(_clear_bss.o)
 .text.libgcc.mul
                0x00000000        0x0 c:/program files/atmel/atmel toolchain/avr8 gcc/native/3.4.1051/avr8-gnu-toolchain/bin/../lib/gcc/avr/4.8.1/avr6\libgcc.a(_clear_bss.o)
 .text.libgcc.div
                0x00000000        0x0 c:/program files/atmel/atmel toolchain/avr8 gcc/native/3.4.1051/avr8-gnu-toolchain/bin/../lib/gcc/avr/4.8.1/avr6\libgcc.a(_clear_bss.o)
 .text.libgcc   0x00000000        0x0 c:/program files/atmel/atmel toolchain/avr8 gcc/native/3.4.1051/avr8-gnu-toolchain/bin/../lib/gcc/avr/4.8.1/avr6\libgcc.a(_clear_bss.o)
 .text.libgcc.prologue
                0x00000000        0x0 c:/program files/atmel/atmel toolchain/avr8 gcc/native/3.4.1051/avr8-gnu-toolchain/bin/../lib/gcc/avr/4.8.1/avr6\libgcc.a(_clear_bss.o)
 .text.libgcc.builtins
                0x00000000        0x0 c:/program files/atmel/atmel toolchain/avr8 gcc/native/3.4.1051/avr8-gnu-toolchain/bin/../lib/gcc/avr/4.8.1/avr6\libgcc.a(_clear_bss.o)
 .text.libgcc.fmul
                0x00000000        0x0 c:/program files/atmel/atmel toolchain/avr8 gcc/native/3.4.1051/avr8-gnu-toolchain/bin/../lib/gcc/avr/4.8.1/avr6\libgcc.a(_clear_bss.o)
 .text.libgcc.fixed
                0x00000000        0x0 c:/program files/atmel/atmel toolchain/avr8 gcc/native/3.4.1051/avr8-gnu-toolchain/bin/../lib/gcc/avr/4.8.1/avr6\libgcc.a(_clear_bss.o)
 .text          0x00000000        0x0 c:/program files/atmel/atmel toolchain/avr8 gcc/native/3.4.1051/avr8-gnu-toolchain/bin/../lib/gcc/avr/4.8.1/avr6\libgcc.a(_ctors.o)
 .bss           0x00000000        0x0 c:/program files/atmel/atmel toolchain/avr8 gcc/native/3.4.1051/avr8-gnu-toolchain/bin/../lib/gcc/avr/4.8.1/avr6\libgcc.a(_ctors.o)
 .text.libgcc.mul
                0x00000000        0x0 c:/program files/atmel/atmel toolchain/avr8 gcc/native/3.4.1051/avr8-gnu-toolchain/bin/../lib/gcc/avr/4.8.1/avr6\libgcc.a(_ctors.o)
 .text.libgcc.div
                0x00000000        0x0 c:/program files/atmel/atmel toolchain/avr8 gcc/native/3.4.1051/avr8-gnu-toolchain/bin/../lib/gcc/avr/4.8.1/avr6\libgcc.a(_ctors.o)
 .text.libgcc   0x00000000        0x0 c:/program files/atmel/atmel toolchain/avr8 gcc/native/3.4.1051/avr8-gnu-toolchain/bin/../lib/gcc/avr/4.8.1/avr6\libgcc.a(_ctors.o)
 .text.libgcc.prologue
                0x00000000        0x0 c:/program files/atmel/atmel toolchain/avr8 gcc/native/3.4.1051/avr8-gnu-toolchain/bin/../lib/gcc/avr/4.8.1/avr6\libgcc.a(_ctors.o)
 .text.libgcc.builtins
                0x00000000        0x0 c:/program files/atmel/atmel toolchain/avr8 gcc/native/3.4.1051/avr8-gnu-toolchain/bin/../lib/gcc/avr/4.8.1/avr6\libgcc.a(_ctors.o)
 .text.libgcc.fmul
                0x00000000        0x0 c:/program files/atmel/atmel toolchain/avr8 gcc/native/3.4.1051/avr8-gnu-toolchain/bin/../lib/gcc/avr/4.8.1/avr6\libgcc.a(_ctors.o)
 .text.libgcc.fixed
                0x00000000        0x0 c:/program files/atmel/atmel toolchain/avr8 gcc/native/3.4.1051/avr8-gnu-toolchain/bin/../lib/gcc/avr/4.8.1/avr6\libgcc.a(_ctors.o)
 .text          0x00000000        0x0 c:/program files/atmel/atmel toolchain/avr8 gcc/native/3.4.1051/avr8-gnu-toolchain/bin/../lib/gcc/avr/4.8.1/avr6\libgcc.a(_dtors.o)
 .bss           0x00000000        0x0 c:/program files/atmel/atmel toolchain/avr8 gcc/native/3.4.1051/avr8-gnu-toolchain/bin/../lib/gcc/avr/4.8.1/avr6\libgcc.a(_dtors.o)
 .text.libgcc.mul
                0x00000000        0x0 c:/program files/atmel/atmel toolchain/avr8 gcc/native/3.4.1051/avr8-gnu-toolchain/bin/../lib/gcc/avr/4.8.1/avr6\libgcc.a(_dtors.o)
 .text.libgcc.div
                0x00000000        0x0 c:/program files/atmel/atmel toolchain/avr8 gcc/native/3.4.1051/avr8-gnu-toolchain/bin/../lib/gcc/avr/4.8.1/avr6\libgcc.a(_dtors.o)
 .text.libgcc   0x00000000        0x0 c:/program files/atmel/atmel toolchain/avr8 gcc/native/3.4.1051/avr8-gnu-toolchain/bin/../lib/gcc/avr/4.8.1/avr6\libgcc.a(_dtors.o)
 .text.libgcc.prologue
                0x00000000        0x0 c:/program files/atmel/atmel toolchain/avr8 gcc/native/3.4.1051/avr8-gnu-toolchain/bin/../lib/gcc/avr/4.8.1/avr6\libgcc.a(_dtors.o)
 .text.libgcc.builtins
                0x00000000        0x0 c:/program files/atmel/atmel toolchain/avr8 gcc/native/3.4.1051/avr8-gnu-toolchain/bin/../lib/gcc/avr/4.8.1/avr6\libgcc.a(_dtors.o)
 .text.libgcc.fmul
                0x00000000        0x0 c:/program files/atmel/atmel toolchain/avr8 gcc/native/3.4.1051/avr8-gnu-toolchain/bin/../lib/gcc/avr/4.8.1/avr6\libgcc.a(_dtors.o)
 .text.libgcc.fixed
                0x00000000        0x0 c:/program files/atmel/atmel toolchain/avr8 gcc/native/3.4.1051/avr8-gnu-toolchain/bin/../lib/gcc/avr/4.8.1/avr6\libgcc.a(_dtors.o)
 .text          0x00000000        0x0 c:/program files/atmel/atmel toolchain/avr8 gcc/native/3.4.1051/avr8-gnu-toolchain/bin/../lib/gcc/avr/4.8.1/avr6\libgcc.a(_muluhisi3.o)
 .bss           0x00000000        0x0 c:/program files/atmel/atmel toolchain/avr8 gcc/native/3.4.1051/avr8-gnu-toolchain/bin/../lib/gcc/avr/4.8.1/avr6\libgcc.a(_muluhisi3.o)
 .text.libgcc.div
                0x00000000        0x0 c:/program files/atmel/atmel toolchain/avr8 gcc/native/3.4.1051/avr8-gnu-toolchain/bin/../lib/gcc/avr/4.8.1/avr6\libgcc.a(_muluhisi3.o)
 .text.libgcc   0x00000000        0x0 c:/program files/atmel/atmel toolchain/avr8 gcc/native/3.4.1051/avr8-gnu-toolchain/bin/../lib/gcc/avr/4.8.1/avr6\libgcc.a(_muluhisi3.o)
 .text.libgcc.prologue
                0x00000000        0x0 c:/program files/atmel/atmel toolchain/avr8 gcc/native/3.4.1051/avr8-gnu-toolchain/bin/../lib/gcc/avr/4.8.1/avr6\libgcc.a(_muluhisi3.o)
 .text.libgcc.builtins
                0x00000000        0x0 c:/program files/atmel/atmel toolchain/avr8 gcc/native/3.4.1051/avr8-gnu-toolchain/bin/../lib/gcc/avr/4.8.1/avr6\libgcc.a(_muluhisi3.o)
 .text.libgcc.fmul
                0x00000000        0x0 c:/program files/atmel/atmel toolchain/avr8 gcc/native/3.4.1051/avr8-gnu-toolchain/bin/../lib/gcc/avr/4.8.1/avr6\libgcc.a(_muluhisi3.o)
 .text.libgcc.fixed
                0x00000000        0x0 c:/program files/atmel/atmel toolchain/avr8 gcc/native/3.4.1051/avr8-gnu-toolchain/bin/../lib/gcc/avr/4.8.1/avr6\libgcc.a(_muluhisi3.o)
 .text          0x00000000        0x0 c:/program files/atmel/atmel toolchain/avr8 gcc/native/3.4.1051/avr8-gnu-toolchain/bin/../lib/gcc/avr/4.8.1/avr6\libgcc.a(_tablejump_elpm.o)
 .bss           0x00000000        0x0 c:/program files/atmel/atmel toolchain/avr8 gcc/native/3.4.1051/avr8-gnu-toolchain/bin/../lib/gcc/avr/4.8.1/avr6\libgcc.a(_tablejump_elpm.o)
 .text.libgcc.mul
                0x00000000        0x0 c:/program files/atmel/atmel toolchain/avr8 gcc/native/3.4.1051/avr8-gnu-toolchain/bin/../lib/gcc/avr/4.8.1/avr6\libgcc.a(_tablejump_elpm.o)
 .text.libgcc.div
                0x00000000        0x0 c:/program files/atmel/atmel toolchain/avr8 gcc/native/3.4.1051/avr8-gnu-toolchain/bin/../lib/gcc/avr/4.8.1/avr6\libgcc.a(_tablejump_elpm.o)
 .text.libgcc.prologue
                0x00000000        0x0 c:/program files/atmel/atmel toolchain/avr8 gcc/native/3.4.1051/avr8-gnu-toolchain/bin/../lib/gcc/avr/4.8.1/avr6\libgcc.a(_tablejump_elpm.o)
 .text.libgcc.builtins
                0x00000000        0x0 c:/program files/atmel/atmel toolchain/avr8 gcc/native/3.4.1051/avr8-gnu-toolchain/bin/../lib/gcc/avr/4.8.1/avr6\libgcc.a(_tablejump_elpm.o)
 .text.libgcc.fmul
                0x00000000        0x0 c:/program files/atmel/atmel toolchain/avr8 gcc/native/3.4.1051/avr8-gnu-toolchain/bin/../lib/gcc/avr/4.8.1/avr6\libgcc.a(_tablejump_elpm.o)
 .text.libgcc.fixed
                0x00000000        0x0 c:/program files/atmel/atmel toolchain/avr8 gcc/native/3.4.1051/avr8-gnu-toolchain/bin/../lib/gcc/avr/4.8.1/avr6\libgcc.a(_tablejump_elpm.o)
 .text          0x00000000        0x0 c:/program files/atmel/atmel toolchain/avr8 gcc/native/3.4.1051/avr8-gnu-toolchain/bin/../lib/gcc/avr/4.8.1/avr6\libgcc.a(_umulhisi3.o)
 .bss           0x00000000        0x0 c:/program files/atmel/atmel toolchain/avr8 gcc/native/3.4.1051/avr8-gnu-toolchain/bin/../lib/gcc/avr/4.8.1/avr6\libgcc.a(_umulhisi3.o)
 .text.libgcc.div
                0x00000000        0x0 c:/program files/atmel/atmel toolchain/avr8 gcc/native/3.4.1051/avr8-gnu-toolchain/bin/../lib/gcc/avr/4.8.1/avr6\libgcc.a(_umulhisi3.o)
 .text.libgcc   0x00000000        0x0 c:/program files/atmel/atmel toolchain/avr8 gcc/native/3.4.1051/avr8-gnu-toolchain/bin/../lib/gcc/avr/4.8.1/avr6\libgcc.a(_umulhisi3.o)
 .text.libgcc.prologue
                0x00000000        0x0 c:/program files/atmel/atmel toolchain/avr8 gcc/native/3.4.1051/avr8-gnu-toolchain/bin/../lib/gcc/avr/4.8.1/avr6\libgcc.a(_umulhisi3.o)
 .text.libgcc.builtins
                0x00000000        0x0 c:/program files/atmel/atmel toolchain/avr8 gcc/native/3.4.1051/avr8-gnu-toolchain/bin/../lib/gcc/avr/4.8.1/avr6\libgcc.a(_umulhisi3.o)
 .text.libgcc.fmul
                0x00000000        0x0 c:/program files/atmel/atmel toolchain/avr8 gcc/native/3.4.1051/avr8-gnu-toolchain/bin/../lib/gcc/avr/4.8.1/avr6\libgcc.a(_umulhisi3.o)
 .text.libgcc.fixed
                0x00000000        0x0 c:/program files/atmel/atmel toolchain/avr8 gcc/native/3.4.1051/avr8-gnu-toolchain/bin/../lib/gcc/avr/4.8.1/avr6\libgcc.a(_umulhisi3.o)
 .text          0x00000000        0x0 c:/program files/atmel/atmel toolchain/avr8 gcc/native/3.4.1051/avr8-gnu-toolchain/bin/../lib/gcc/avr/4.8.1/../../../../avr/lib/avr6\libc.a(dtostrf.o)
 .bss           0x00000000        0x0 c:/program files/atmel/atmel toolchain/avr8 gcc/native/3.4.1051/avr8-gnu-toolchain/bin/../lib/gcc/avr/4.8.1/../../../../avr/lib/avr6\libc.a(dtostrf.o)
 .text.avr-libc
                0x00000000       0x42 c:/program files/atmel/atmel toolchain/avr8 gcc/native/3.4.1051/avr8-gnu-toolchain/bin/../lib/gcc/avr/4.8.1/../../../../avr/lib/avr6\libc.a(dtostrf.o)
 .text          0x00000000        0x0 c:/program files/atmel/atmel toolchain/avr8 gcc/native/3.4.1051/avr8-gnu-toolchain/bin/../lib/gcc/avr/4.8.1/../../../../avr/lib/avr6\libc.a(rand.o)
 .bss           0x00000000        0x0 c:/program files/atmel/atmel toolchain/avr8 gcc/native/3.4.1051/avr8-gnu-toolchain/bin/../lib/gcc/avr/4.8.1/../../../../avr/lib/avr6\libc.a(rand.o)
 .text          0x00000000        0x0 c:/program files/atmel/atmel toolchain/avr8 gcc/native/3.4.1051/avr8-gnu-toolchain/bin/../lib/gcc/avr/4.8.1/../../../../avr/lib/avr6\libc.a(random.o)
 .bss           0x00000000        0x0 c:/program files/atmel/atmel toolchain/avr8 gcc/native/3.4.1051/avr8-gnu-toolchain/bin/../lib/gcc/avr/4.8.1/../../../../avr/lib/avr6\libc.a(random.o)
 .text          0x00000000        0x0 c:/program files/atmel/atmel toolchain/avr8 gcc/native/3.4.1051/avr8-gnu-toolchain/bin/../lib/gcc/avr/4.8.1/../../../../avr/lib/avr6\libc.a(strtoul.o)
 .bss           0x00000000        0x0 c:/program files/atmel/atmel toolchain/avr8 gcc/native/3.4.1051/avr8-gnu-toolchain/bin/../lib/gcc/avr/4.8.1/../../../../avr/lib/avr6\libc.a(strtoul.o)
 .text          0x00000000        0x0 c:/program files/atmel/atmel toolchain/avr8 gcc/native/3.4.1051/avr8-gnu-toolchain/bin/../lib/gcc/avr/4.8.1/../../../../avr/lib/avr6\libc.a(atof.o)
 .bss           0x00000000        0x0 c:/program files/atmel/atmel toolchain/avr8 gcc/native/3.4.1051/avr8-gnu-toolchain/bin/../lib/gcc/avr/4.8.1/../../../../avr/lib/avr6\libc.a(atof.o)
 .text.avr-libc
                0x00000000        0x8 c:/program files/atmel/atmel toolchain/avr8 gcc/native/3.4.1051/avr8-gnu-toolchain/bin/../lib/gcc/avr/4.8.1/../../../../avr/lib/avr6\libc.a(atof.o)
 .text          0x00000000        0x0 c:/program files/atmel/atmel toolchain/avr8 gcc/native/3.4.1051/avr8-gnu-toolchain/bin/../lib/gcc/avr/4.8.1/../../../../avr/lib/avr6\libc.a(atoi.o)
 .bss           0x00000000        0x0 c:/program files/atmel/atmel toolchain/avr8 gcc/native/3.4.1051/avr8-gnu-toolchain/bin/../lib/gcc/avr/4.8.1/../../../../avr/lib/avr6\libc.a(atoi.o)
 .text          0x00000000        0x0 c:/program files/atmel/atmel toolchain/avr8 gcc/native/3.4.1051/avr8-gnu-toolchain/bin/../lib/gcc/avr/4.8.1/../../../../avr/lib/avr6\libc.a(atol.o)
 .bss           0x00000000        0x0 c:/program files/atmel/atmel toolchain/avr8 gcc/native/3.4.1051/avr8-gnu-toolchain/bin/../lib/gcc/avr/4.8.1/../../../../avr/lib/avr6\libc.a(atol.o)
 .text.avr-libc
                0x00000000       0x4e c:/program files/atmel/atmel toolchain/avr8 gcc/native/3.4.1051/avr8-gnu-toolchain/bin/../lib/gcc/avr/4.8.1/../../../../avr/lib/avr6\libc.a(atol.o)
 .text          0x00000000        0x0 c:/program files/atmel/atmel toolchain/avr8 gcc/native/3.4.1051/avr8-gnu-toolchain/bin/../lib/gcc/avr/4.8.1/../../../../avr/lib/avr6\libc.a(setjmp.o)
 .bss           0x00000000        0x0 c:/program files/atmel/atmel toolchain/avr8 gcc/native/3.4.1051/avr8-gnu-toolchain/bin/../lib/gcc/avr/4.8.1/../../../../avr/lib/avr6\libc.a(setjmp.o)
 .text          0x00000000        0x0 c:/program files/atmel/atmel toolchain/avr8 gcc/native/3.4.1051/avr8-gnu-toolchain/bin/../lib/gcc/avr/4.8.1/../../../../avr/lib/avr6\libc.a(isalnum.o)
 .bss           0x00000000        0x0 c:/program files/atmel/atmel toolchain/avr8 gcc/native/3.4.1051/avr8-gnu-toolchain/bin/../lib/gcc/avr/4.8.1/../../../../avr/lib/avr6\libc.a(isalnum.o)
 .text          0x00000000        0x0 c:/program files/atmel/atmel toolchain/avr8 gcc/native/3.4.1051/avr8-gnu-toolchain/bin/../lib/gcc/avr/4.8.1/../../../../avr/lib/avr6\libc.a(cty_isfalse.o)
 .bss           0x00000000        0x0 c:/program files/atmel/atmel toolchain/avr8 gcc/native/3.4.1051/avr8-gnu-toolchain/bin/../lib/gcc/avr/4.8.1/../../../../avr/lib/avr6\libc.a(cty_isfalse.o)
 .text          0x00000000        0x0 c:/program files/atmel/atmel toolchain/avr8 gcc/native/3.4.1051/avr8-gnu-toolchain/bin/../lib/gcc/avr/4.8.1/../../../../avr/lib/avr6\libc.a(isalpha.o)
 .bss           0x00000000        0x0 c:/program files/atmel/atmel toolchain/avr8 gcc/native/3.4.1051/avr8-gnu-toolchain/bin/../lib/gcc/avr/4.8.1/../../../../avr/lib/avr6\libc.a(isalpha.o)
 .text          0x00000000        0x0 c:/program files/atmel/atmel toolchain/avr8 gcc/native/3.4.1051/avr8-gnu-toolchain/bin/../lib/gcc/avr/4.8.1/../../../../avr/lib/avr6\libc.a(isxdigit.o)
 .bss           0x00000000        0x0 c:/program files/atmel/atmel toolchain/avr8 gcc/native/3.4.1051/avr8-gnu-toolchain/bin/../lib/gcc/avr/4.8.1/../../../../avr/lib/avr6\libc.a(isxdigit.o)
 .text          0x00000000        0x0 c:/program files/atmel/atmel toolchain/avr8 gcc/native/3.4.1051/avr8-gnu-toolchain/bin/../lib/gcc/avr/4.8.1/../../../../avr/lib/avr6\libc.a(isprint.o)
 .bss           0x00000000        0x0 c:/program files/atmel/atmel toolchain/avr8 gcc/native/3.4.1051/avr8-gnu-toolchain/bin/../lib/gcc/avr/4.8.1/../../../../avr/lib/avr6\libc.a(isprint.o)
 .text          0x00000000        0x0 c:/program files/atmel/atmel toolchain/avr8 gcc/native/3.4.1051/avr8-gnu-toolchain/bin/../lib/gcc/avr/4.8.1/../../../../avr/lib/avr6\libc.a(isspace.o)
 .bss           0x00000000        0x0 c:/program files/atmel/atmel toolchain/avr8 gcc/native/3.4.1051/avr8-gnu-toolchain/bin/../lib/gcc/avr/4.8.1/../../../../avr/lib/avr6\libc.a(isspace.o)
 .text          0x00000000        0x0 c:/program files/atmel/atmel toolchain/avr8 gcc/native/3.4.1051/avr8-gnu-toolchain/bin/../lib/gcc/avr/4.8.1/../../../../avr/lib/avr6\libc.a(tolower.o)
 .bss           0x00000000        0x0 c:/program files/atmel/atmel toolchain/avr8 gcc/native/3.4.1051/avr8-gnu-toolchain/bin/../lib/gcc/avr/4.8.1/../../../../avr/lib/avr6\libc.a(tolower.o)
 .text          0x00000000        0x0 c:/program files/atmel/atmel toolchain/avr8 gcc/native/3.4.1051/avr8-gnu-toolchain/bin/../lib/gcc/avr/4.8.1/../../../../avr/lib/avr6\libc.a(toupper.o)
 .bss           0x00000000        0x0 c:/program files/atmel/atmel toolchain/avr8 gcc/native/3.4.1051/avr8-gnu-toolchain/bin/../lib/gcc/avr/4.8.1/../../../../avr/lib/avr6\libc.a(toupper.o)
 .text.avr-libc
                0x00000000       0x10 c:/program files/atmel/atmel toolchain/avr8 gcc/native/3.4.1051/avr8-gnu-toolchain/bin/../lib/gcc/avr/4.8.1/../../../../avr/lib/avr6\libc.a(toupper.o)
 .text          0x00000000        0x0 c:/program files/atmel/atmel toolchain/avr8 gcc/native/3.4.1051/avr8-gnu-toolchain/bin/../lib/gcc/avr/4.8.1/../../../../avr/lib/avr6\libc.a(strcmp_P.o)
 .bss           0x00000000        0x0 c:/program files/atmel/atmel toolchain/avr8 gcc/native/3.4.1051/avr8-gnu-toolchain/bin/../lib/gcc/avr/4.8.1/../../../../avr/lib/avr6\libc.a(strcmp_P.o)
 .text          0x00000000        0x0 c:/program files/atmel/atmel toolchain/avr8 gcc/native/3.4.1051/avr8-gnu-toolchain/bin/../lib/gcc/avr/4.8.1/../../../../avr/lib/avr6\libc.a(strcpy_P.o)
 .bss           0x00000000        0x0 c:/program files/atmel/atmel toolchain/avr8 gcc/native/3.4.1051/avr8-gnu-toolchain/bin/../lib/gcc/avr/4.8.1/../../../../avr/lib/avr6\libc.a(strcpy_P.o)
 .text          0x00000000        0x0 c:/program files/atmel/atmel toolchain/avr8 gcc/native/3.4.1051/avr8-gnu-toolchain/bin/../lib/gcc/avr/4.8.1/../../../../avr/lib/avr6\libc.a(strlen_P.o)
 .bss           0x00000000        0x0 c:/program files/atmel/atmel toolchain/avr8 gcc/native/3.4.1051/avr8-gnu-toolchain/bin/../lib/gcc/avr/4.8.1/../../../../avr/lib/avr6\libc.a(strlen_P.o)
 .text          0x00000000        0x0 c:/program files/atmel/atmel toolchain/avr8 gcc/native/3.4.1051/avr8-gnu-toolchain/bin/../lib/gcc/avr/4.8.1/../../../../avr/lib/avr6\libc.a(strncpy_P.o)
 .bss           0x00000000        0x0 c:/program files/atmel/atmel toolchain/avr8 gcc/native/3.4.1051/avr8-gnu-toolchain/bin/../lib/gcc/avr/4.8.1/../../../../avr/lib/avr6\libc.a(strncpy_P.o)
 .text          0x00000000        0x0 c:/program files/atmel/atmel toolchain/avr8 gcc/native/3.4.1051/avr8-gnu-toolchain/bin/../lib/gcc/avr/4.8.1/../../../../avr/lib/avr6\libc.a(strdup.o)
 .bss           0x00000000        0x0 c:/program files/atmel/atmel toolchain/avr8 gcc/native/3.4.1051/avr8-gnu-toolchain/bin/../lib/gcc/avr/4.8.1/../../../../avr/lib/avr6\libc.a(strdup.o)
 .text          0x00000000        0x0 c:/program files/atmel/atmel toolchain/avr8 gcc/native/3.4.1051/avr8-gnu-toolchain/bin/../lib/gcc/avr/4.8.1/../../../../avr/lib/avr6\libc.a(memcmp.o)
 .bss           0x00000000        0x0 c:/program files/atmel/atmel toolchain/avr8 gcc/native/3.4.1051/avr8-gnu-toolchain/bin/../lib/gcc/avr/4.8.1/../../../../avr/lib/avr6\libc.a(memcmp.o)
 .text.avr-libc
                0x00000000       0x1a c:/program files/atmel/atmel toolchain/avr8 gcc/native/3.4.1051/avr8-gnu-toolchain/bin/../lib/gcc/avr/4.8.1/../../../../avr/lib/avr6\libc.a(memcmp.o)
 .text          0x00000000        0x0 c:/program files/atmel/atmel toolchain/avr8 gcc/native/3.4.1051/avr8-gnu-toolchain/bin/../lib/gcc/avr/4.8.1/../../../../avr/lib/avr6\libc.a(memcpy.o)
 .bss           0x00000000        0x0 c:/program files/atmel/atmel toolchain/avr8 gcc/native/3.4.1051/avr8-gnu-toolchain/bin/../lib/gcc/avr/4.8.1/../../../../avr/lib/avr6\libc.a(memcpy.o)
 .text          0x00000000        0x0 c:/program files/atmel/atmel toolchain/avr8 gcc/native/3.4.1051/avr8-gnu-toolchain/bin/../lib/gcc/avr/4.8.1/../../../../avr/lib/avr6\libc.a(memmove.o)
 .bss           0x00000000        0x0 c:/program files/atmel/atmel toolchain/avr8 gcc/native/3.4.1051/avr8-gnu-toolchain/bin/../lib/gcc/avr/4.8.1/../../../../avr/lib/avr6\libc.a(memmove.o)
 .text          0x00000000        0x0 c:/program files/atmel/atmel toolchain/avr8 gcc/native/3.4.1051/avr8-gnu-toolchain/bin/../lib/gcc/avr/4.8.1/../../../../avr/lib/avr6\libc.a(memset.o)
 .bss           0x00000000        0x0 c:/program files/atmel/atmel toolchain/avr8 gcc/native/3.4.1051/avr8-gnu-toolchain/bin/../lib/gcc/avr/4.8.1/../../../../avr/lib/avr6\libc.a(memset.o)
 .text          0x00000000        0x0 c:/program files/atmel/atmel toolchain/avr8 gcc/native/3.4.1051/avr8-gnu-toolchain/bin/../lib/gcc/avr/4.8.1/../../../../avr/lib/avr6\libc.a(strchr.o)
 .bss           0x00000000        0x0 c:/program files/atmel/atmel toolchain/avr8 gcc/native/3.4.1051/avr8-gnu-toolchain/bin/../lib/gcc/avr/4.8.1/../../../../avr/lib/avr6\libc.a(strchr.o)
 .text          0x00000000        0x0 c:/program files/atmel/atmel toolchain/avr8 gcc/native/3.4.1051/avr8-gnu-toolchain/bin/../lib/gcc/avr/4.8.1/../../../../avr/lib/avr6\libc.a(strcmp.o)
 .bss           0x00000000        0x0 c:/program files/atmel/atmel toolchain/avr8 gcc/native/3.4.1051/avr8-gnu-toolchain/bin/../lib/gcc/avr/4.8.1/../../../../avr/lib/avr6\libc.a(strcmp.o)
 .text          0x00000000        0x0 c:/program files/atmel/atmel toolchain/avr8 gcc/native/3.4.1051/avr8-gnu-toolchain/bin/../lib/gcc/avr/4.8.1/../../../../avr/lib/avr6\libc.a(strcpy.o)
 .bss           0x00000000        0x0 c:/program files/atmel/atmel toolchain/avr8 gcc/native/3.4.1051/avr8-gnu-toolchain/bin/../lib/gcc/avr/4.8.1/../../../../avr/lib/avr6\libc.a(strcpy.o)
 .text          0x00000000        0x0 c:/program files/atmel/atmel toolchain/avr8 gcc/native/3.4.1051/avr8-gnu-toolchain/bin/../lib/gcc/avr/4.8.1/../../../../avr/lib/avr6\libc.a(strncmp.o)
 .bss           0x00000000        0x0 c:/program files/atmel/atmel toolchain/avr8 gcc/native/3.4.1051/avr8-gnu-toolchain/bin/../lib/gcc/avr/4.8.1/../../../../avr/lib/avr6\libc.a(strncmp.o)
 .text          0x00000000        0x0 c:/program files/atmel/atmel toolchain/avr8 gcc/native/3.4.1051/avr8-gnu-toolchain/bin/../lib/gcc/avr/4.8.1/../../../../avr/lib/avr6\libc.a(strncpy.o)
 .bss           0x00000000        0x0 c:/program files/atmel/atmel toolchain/avr8 gcc/native/3.4.1051/avr8-gnu-toolchain/bin/../lib/gcc/avr/4.8.1/../../../../avr/lib/avr6\libc.a(strncpy.o)
 .text          0x00000000        0x0 c:/program files/atmel/atmel toolchain/avr8 gcc/native/3.4.1051/avr8-gnu-toolchain/bin/../lib/gcc/avr/4.8.1/../../../../avr/lib/avr6\libc.a(strrchr.o)
 .bss           0x00000000        0x0 c:/program files/atmel/atmel toolchain/avr8 gcc/native/3.4.1051/avr8-gnu-toolchain/bin/../lib/gcc/avr/4.8.1/../../../../avr/lib/avr6\libc.a(strrchr.o)
 .text.avr-libc
                0x00000000       0x16 c:/program files/atmel/atmel toolchain/avr8 gcc/native/3.4.1051/avr8-gnu-toolchain/bin/../lib/gcc/avr/4.8.1/../../../../avr/lib/avr6\libc.a(strrchr.o)
 .text          0x00000000        0x0 c:/program files/atmel/atmel toolchain/avr8 gcc/native/3.4.1051/avr8-gnu-toolchain/bin/../lib/gcc/avr/4.8.1/../../../../avr/lib/avr6\libc.a(strstr.o)
 .bss           0x00000000        0x0 c:/program files/atmel/atmel toolchain/avr8 gcc/native/3.4.1051/avr8-gnu-toolchain/bin/../lib/gcc/avr/4.8.1/../../../../avr/lib/avr6\libc.a(strstr.o)
 .text.avr-libc
                0x00000000       0x34 c:/program files/atmel/atmel toolchain/avr8 gcc/native/3.4.1051/avr8-gnu-toolchain/bin/../lib/gcc/avr/4.8.1/../../../../avr/lib/avr6\libc.a(strstr.o)
 .text          0x00000000        0x0 c:/program files/atmel/atmel toolchain/avr8 gcc/native/3.4.1051/avr8-gnu-toolchain/bin/../lib/gcc/avr/4.8.1/../../../../avr/lib/avr6\libc.a(itoa.o)
 .bss           0x00000000        0x0 c:/program files/atmel/atmel toolchain/avr8 gcc/native/3.4.1051/avr8-gnu-toolchain/bin/../lib/gcc/avr/4.8.1/../../../../avr/lib/avr6\libc.a(itoa.o)
 .text          0x00000000        0x0 c:/program files/atmel/atmel toolchain/avr8 gcc/native/3.4.1051/avr8-gnu-toolchain/bin/../lib/gcc/avr/4.8.1/../../../../avr/lib/avr6\libc.a(itoa_ncheck.o)
 .bss           0x00000000        0x0 c:/program files/atmel/atmel toolchain/avr8 gcc/native/3.4.1051/avr8-gnu-toolchain/bin/../lib/gcc/avr/4.8.1/../../../../avr/lib/avr6\libc.a(itoa_ncheck.o)
 .text          0x00000000        0x0 c:/program files/atmel/atmel toolchain/avr8 gcc/native/3.4.1051/avr8-gnu-toolchain/bin/../lib/gcc/avr/4.8.1/../../../../avr/lib/avr6\libc.a(ltoa.o)
 .bss           0x00000000        0x0 c:/program files/atmel/atmel toolchain/avr8 gcc/native/3.4.1051/avr8-gnu-toolchain/bin/../lib/gcc/avr/4.8.1/../../../../avr/lib/avr6\libc.a(ltoa.o)
 .text          0x00000000        0x0 c:/program files/atmel/atmel toolchain/avr8 gcc/native/3.4.1051/avr8-gnu-toolchain/bin/../lib/gcc/avr/4.8.1/../../../../avr/lib/avr6\libc.a(ltoa_ncheck.o)
 .bss           0x00000000        0x0 c:/program files/atmel/atmel toolchain/avr8 gcc/native/3.4.1051/avr8-gnu-toolchain/bin/../lib/gcc/avr/4.8.1/../../../../avr/lib/avr6\libc.a(ltoa_ncheck.o)
 .text          0x00000000        0x0 c:/program files/atmel/atmel toolchain/avr8 gcc/native/3.4.1051/avr8-gnu-toolchain/bin/../lib/gcc/avr/4.8.1/../../../../avr/lib/avr6\libc.a(mulsi10.o)
 .bss           0x00000000        0x0 c:/program files/atmel/atmel toolchain/avr8 gcc/native/3.4.1051/avr8-gnu-toolchain/bin/../lib/gcc/avr/4.8.1/../../../../avr/lib/avr6\libc.a(mulsi10.o)
 .text.avr-libc
                0x00000000       0x2a c:/program files/atmel/atmel toolchain/avr8 gcc/native/3.4.1051/avr8-gnu-toolchain/bin/../lib/gcc/avr/4.8.1/../../../../avr/lib/avr6\libc.a(mulsi10.o)
 .text          0x00000000        0x0 c:/program files/atmel/atmel toolchain/avr8 gcc/native/3.4.1051/avr8-gnu-toolchain/bin/../lib/gcc/avr/4.8.1/../../../../avr/lib/avr6\libc.a(mul10.o)
 .bss           0x00000000        0x0 c:/program files/atmel/atmel toolchain/avr8 gcc/native/3.4.1051/avr8-gnu-toolchain/bin/../lib/gcc/avr/4.8.1/../../../../avr/lib/avr6\libc.a(mul10.o)
 .text          0x00000000        0x0 c:/program files/atmel/atmel toolchain/avr8 gcc/native/3.4.1051/avr8-gnu-toolchain/bin/../lib/gcc/avr/4.8.1/../../../../avr/lib/avr6\libc.a(ultoa.o)
 .bss           0x00000000        0x0 c:/program files/atmel/atmel toolchain/avr8 gcc/native/3.4.1051/avr8-gnu-toolchain/bin/../lib/gcc/avr/4.8.1/../../../../avr/lib/avr6\libc.a(ultoa.o)
 .text          0x00000000        0x0 c:/program files/atmel/atmel toolchain/avr8 gcc/native/3.4.1051/avr8-gnu-toolchain/bin/../lib/gcc/avr/4.8.1/../../../../avr/lib/avr6\libc.a(ultoa_ncheck.o)
 .bss           0x00000000        0x0 c:/program files/atmel/atmel toolchain/avr8 gcc/native/3.4.1051/avr8-gnu-toolchain/bin/../lib/gcc/avr/4.8.1/../../../../avr/lib/avr6\libc.a(ultoa_ncheck.o)
 .text          0x00000000        0x0 c:/program files/atmel/atmel toolchain/avr8 gcc/native/3.4.1051/avr8-gnu-toolchain/bin/../lib/gcc/avr/4.8.1/../../../../avr/lib/avr6\libc.a(utoa.o)
 .bss           0x00000000        0x0 c:/program files/atmel/atmel toolchain/avr8 gcc/native/3.4.1051/avr8-gnu-toolchain/bin/../lib/gcc/avr/4.8.1/../../../../avr/lib/avr6\libc.a(utoa.o)
 .text          0x00000000        0x0 c:/program files/atmel/atmel toolchain/avr8 gcc/native/3.4.1051/avr8-gnu-toolchain/bin/../lib/gcc/avr/4.8.1/../../../../avr/lib/avr6\libc.a(utoa_ncheck.o)
 .bss           0x00000000        0x0 c:/program files/atmel/atmel toolchain/avr8 gcc/native/3.4.1051/avr8-gnu-toolchain/bin/../lib/gcc/avr/4.8.1/../../../../avr/lib/avr6\libc.a(utoa_ncheck.o)
 .text          0x00000000        0x0 c:/program files/atmel/atmel toolchain/avr8 gcc/native/3.4.1051/avr8-gnu-toolchain/bin/../lib/gcc/avr/4.8.1/../../../../avr/lib/avr6\libc.a(snprintf.o)
 .bss           0x00000000        0x0 c:/program files/atmel/atmel toolchain/avr8 gcc/native/3.4.1051/avr8-gnu-toolchain/bin/../lib/gcc/avr/4.8.1/../../../../avr/lib/avr6\libc.a(snprintf.o)
 .text          0x00000000        0x0 c:/program files/atmel/atmel toolchain/avr8 gcc/native/3.4.1051/avr8-gnu-toolchain/bin/../lib/gcc/avr/4.8.1/../../../../avr/lib/avr6\libc.a(sprintf.o)
 .bss           0x00000000        0x0 c:/program files/atmel/atmel toolchain/avr8 gcc/native/3.4.1051/avr8-gnu-toolchain/bin/../lib/gcc/avr/4.8.1/../../../../avr/lib/avr6\libc.a(sprintf.o)
 .text          0x00000000        0x0 c:/program files/atmel/atmel toolchain/avr8 gcc/native/3.4.1051/avr8-gnu-toolchain/bin/../lib/gcc/avr/4.8.1/../../../../avr/lib/avr6\libc.a(vsnprintf.o)
 .bss           0x00000000        0x0 c:/program files/atmel/atmel toolchain/avr8 gcc/native/3.4.1051/avr8-gnu-toolchain/bin/../lib/gcc/avr/4.8.1/../../../../avr/lib/avr6\libc.a(vsnprintf.o)
 .text          0x00000000        0x0 c:/program files/atmel/atmel toolchain/avr8 gcc/native/3.4.1051/avr8-gnu-toolchain/bin/../lib/gcc/avr/4.8.1/../../../../avr/lib/avr6\libc.a(vfprintf_std.o)
 .bss           0x00000000        0x0 c:/program files/atmel/atmel toolchain/avr8 gcc/native/3.4.1051/avr8-gnu-toolchain/bin/../lib/gcc/avr/4.8.1/../../../../avr/lib/avr6\libc.a(vfprintf_std.o)
 .text          0x00000000        0x0 c:/program files/atmel/atmel toolchain/avr8 gcc/native/3.4.1051/avr8-gnu-toolchain/bin/../lib/gcc/avr/4.8.1/../../../../avr/lib/avr6\libc.a(eerd_byte_atmega256rfr2.o)
 .bss           0x00000000        0x0 c:/program files/atmel/atmel toolchain/avr8 gcc/native/3.4.1051/avr8-gnu-toolchain/bin/../lib/gcc/avr/4.8.1/../../../../avr/lib/avr6\libc.a(eerd_byte_atmega256rfr2.o)
 .text          0x00000000        0x0 c:/program files/atmel/atmel toolchain/avr8 gcc/native/3.4.1051/avr8-gnu-toolchain/bin/../lib/gcc/avr/4.8.1/../../../../avr/lib/avr6\libc.a(eerd_dword_atmega256rfr2.o)
 .bss           0x00000000        0x0 c:/program files/atmel/atmel toolchain/avr8 gcc/native/3.4.1051/avr8-gnu-toolchain/bin/../lib/gcc/avr/4.8.1/../../../../avr/lib/avr6\libc.a(eerd_dword_atmega256rfr2.o)
 .text          0x00000000        0x0 c:/program files/atmel/atmel toolchain/avr8 gcc/native/3.4.1051/avr8-gnu-toolchain/bin/../lib/gcc/avr/4.8.1/../../../../avr/lib/avr6\libc.a(eerd_word_atmega256rfr2.o)
 .bss           0x00000000        0x0 c:/program files/atmel/atmel toolchain/avr8 gcc/native/3.4.1051/avr8-gnu-toolchain/bin/../lib/gcc/avr/4.8.1/../../../../avr/lib/avr6\libc.a(eerd_word_atmega256rfr2.o)
 .text          0x00000000        0x0 c:/program files/atmel/atmel toolchain/avr8 gcc/native/3.4.1051/avr8-gnu-toolchain/bin/../lib/gcc/avr/4.8.1/../../../../avr/lib/avr6\libc.a(eeupd_byte_atmega256rfr2.o)
 .bss           0x00000000        0x0 c:/program files/atmel/atmel toolchain/avr8 gcc/native/3.4.1051/avr8-gnu-toolchain/bin/../lib/gcc/avr/4.8.1/../../../../avr/lib/avr6\libc.a(eeupd_byte_atmega256rfr2.o)
 .text          0x00000000        0x0 c:/program files/atmel/atmel toolchain/avr8 gcc/native/3.4.1051/avr8-gnu-toolchain/bin/../lib/gcc/avr/4.8.1/../../../../avr/lib/avr6\libc.a(eeupd_word_atmega256rfr2.o)
 .bss           0x00000000        0x0 c:/program files/atmel/atmel toolchain/avr8 gcc/native/3.4.1051/avr8-gnu-toolchain/bin/../lib/gcc/avr/4.8.1/../../../../avr/lib/avr6\libc.a(eeupd_word_atmega256rfr2.o)
 .text          0x00000000        0x0 c:/program files/atmel/atmel toolchain/avr8 gcc/native/3.4.1051/avr8-gnu-toolchain/bin/../lib/gcc/avr/4.8.1/../../../../avr/lib/avr6\libc.a(eewr_byte_atmega256rfr2.o)
 .bss           0x00000000        0x0 c:/program files/atmel/atmel toolchain/avr8 gcc/native/3.4.1051/avr8-gnu-toolchain/bin/../lib/gcc/avr/4.8.1/../../../../avr/lib/avr6\libc.a(eewr_byte_atmega256rfr2.o)
 .text          0x00000000        0x0 c:/program files/atmel/atmel toolchain/avr8 gcc/native/3.4.1051/avr8-gnu-toolchain/bin/../lib/gcc/avr/4.8.1/../../../../avr/lib/avr6\libc.a(errno.o)
 .bss           0x00000000        0x0 c:/program files/atmel/atmel toolchain/avr8 gcc/native/3.4.1051/avr8-gnu-toolchain/bin/../lib/gcc/avr/4.8.1/../../../../avr/lib/avr6\libc.a(errno.o)
 .text          0x00000000        0x0 c:/program files/atmel/atmel toolchain/avr8 gcc/native/3.4.1051/avr8-gnu-toolchain/bin/../lib/gcc/avr/4.8.1/../../../../avr/lib/avr6\libc.a(dtoa_prf.o)
 .bss           0x00000000        0x0 c:/program files/atmel/atmel toolchain/avr8 gcc/native/3.4.1051/avr8-gnu-toolchain/bin/../lib/gcc/avr/4.8.1/../../../../avr/lib/avr6\libc.a(dtoa_prf.o)
 .text.avr-libc
                0x00000000      0x2fc c:/program files/atmel/atmel toolchain/avr8 gcc/native/3.4.1051/avr8-gnu-toolchain/bin/../lib/gcc/avr/4.8.1/../../../../avr/lib/avr6\libc.a(dtoa_prf.o)
 .text          0x00000000        0x0 c:/program files/atmel/atmel toolchain/avr8 gcc/native/3.4.1051/avr8-gnu-toolchain/bin/../lib/gcc/avr/4.8.1/../../../../avr/lib/avr6\libc.a(strtod.o)
 .bss           0x00000000        0x0 c:/program files/atmel/atmel toolchain/avr8 gcc/native/3.4.1051/avr8-gnu-toolchain/bin/../lib/gcc/avr/4.8.1/../../../../avr/lib/avr6\libc.a(strtod.o)
 .text.avr-libc
                0x00000000      0x2e2 c:/program files/atmel/atmel toolchain/avr8 gcc/native/3.4.1051/avr8-gnu-toolchain/bin/../lib/gcc/avr/4.8.1/../../../../avr/lib/avr6\libc.a(strtod.o)
 .progmem.data  0x00000000       0x3b c:/program files/atmel/atmel toolchain/avr8 gcc/native/3.4.1051/avr8-gnu-toolchain/bin/../lib/gcc/avr/4.8.1/../../../../avr/lib/avr6\libc.a(strtod.o)
 .text          0x00000000        0x0 c:/program files/atmel/atmel toolchain/avr8 gcc/native/3.4.1051/avr8-gnu-toolchain/bin/../lib/gcc/avr/4.8.1/../../../../avr/lib/avr6\libc.a(ftoa_engine.o)
 .bss           0x00000000        0x0 c:/program files/atmel/atmel toolchain/avr8 gcc/native/3.4.1051/avr8-gnu-toolchain/bin/../lib/gcc/avr/4.8.1/../../../../avr/lib/avr6\libc.a(ftoa_engine.o)
 .text.avr-libc
                0x00000000      0x1b0 c:/program files/atmel/atmel toolchain/avr8 gcc/native/3.4.1051/avr8-gnu-toolchain/bin/../lib/gcc/avr/4.8.1/../../../../avr/lib/avr6\libc.a(ftoa_engine.o)
 .progmem.data  0x00000000       0xfa c:/program files/atmel/atmel toolchain/avr8 gcc/native/3.4.1051/avr8-gnu-toolchain/bin/../lib/gcc/avr/4.8.1/../../../../avr/lib/avr6\libc.a(ftoa_engine.o)
 .text          0x00000000        0x0 c:/program files/atmel/atmel toolchain/avr8 gcc/native/3.4.1051/avr8-gnu-toolchain/bin/../lib/gcc/avr/4.8.1/../../../../avr/lib/avr6\libc.a(strncasecmp_P.o)
 .bss           0x00000000        0x0 c:/program files/atmel/atmel toolchain/avr8 gcc/native/3.4.1051/avr8-gnu-toolchain/bin/../lib/gcc/avr/4.8.1/../../../../avr/lib/avr6\libc.a(strncasecmp_P.o)
 .text.avr-libc
                0x00000000       0x30 c:/program files/atmel/atmel toolchain/avr8 gcc/native/3.4.1051/avr8-gnu-toolchain/bin/../lib/gcc/avr/4.8.1/../../../../avr/lib/avr6\libc.a(strncasecmp_P.o)
 .text          0x00000000        0x0 c:/program files/atmel/atmel toolchain/avr8 gcc/native/3.4.1051/avr8-gnu-toolchain/bin/../lib/gcc/avr/4.8.1/../../../../avr/lib/avr6\libc.a(strnlen_P.o)
 .bss           0x00000000        0x0 c:/program files/atmel/atmel toolchain/avr8 gcc/native/3.4.1051/avr8-gnu-toolchain/bin/../lib/gcc/avr/4.8.1/../../../../avr/lib/avr6\libc.a(strnlen_P.o)
 .text          0x00000000        0x0 c:/program files/atmel/atmel toolchain/avr8 gcc/native/3.4.1051/avr8-gnu-toolchain/bin/../lib/gcc/avr/4.8.1/../../../../avr/lib/avr6\libc.a(strnlen.o)
 .bss           0x00000000        0x0 c:/program files/atmel/atmel toolchain/avr8 gcc/native/3.4.1051/avr8-gnu-toolchain/bin/../lib/gcc/avr/4.8.1/../../../../avr/lib/avr6\libc.a(strnlen.o)
 .text          0x00000000        0x0 c:/program files/atmel/atmel toolchain/avr8 gcc/native/3.4.1051/avr8-gnu-toolchain/bin/../lib/gcc/avr/4.8.1/../../../../avr/lib/avr6\libc.a(strrev.o)
 .bss           0x00000000        0x0 c:/program files/atmel/atmel toolchain/avr8 gcc/native/3.4.1051/avr8-gnu-toolchain/bin/../lib/gcc/avr/4.8.1/../../../../avr/lib/avr6\libc.a(strrev.o)
 .text          0x00000000        0x0 c:/program files/atmel/atmel toolchain/avr8 gcc/native/3.4.1051/avr8-gnu-toolchain/bin/../lib/gcc/avr/4.8.1/../../../../avr/lib/avr6\libc.a(fputc.o)
 .bss           0x00000000        0x0 c:/program files/atmel/atmel toolchain/avr8 gcc/native/3.4.1051/avr8-gnu-toolchain/bin/../lib/gcc/avr/4.8.1/../../../../avr/lib/avr6\libc.a(fputc.o)
 .text          0x00000000        0x0 c:/program files/atmel/atmel toolchain/avr8 gcc/native/3.4.1051/avr8-gnu-toolchain/bin/../lib/gcc/avr/4.8.1/../../../../avr/lib/avr6\libc.a(ultoa_invert.o)
 .bss           0x00000000        0x0 c:/program files/atmel/atmel toolchain/avr8 gcc/native/3.4.1051/avr8-gnu-toolchain/bin/../lib/gcc/avr/4.8.1/../../../../avr/lib/avr6\libc.a(ultoa_invert.o)
 .text          0x00000000        0x0 c:/program files/atmel/atmel toolchain/avr8 gcc/native/3.4.1051/avr8-gnu-toolchain/bin/../lib/gcc/avr/4.8.1/../../../../avr/lib/avr6\libc.a(eerd_block_atmega256rfr2.o)
 .bss           0x00000000        0x0 c:/program files/atmel/atmel toolchain/avr8 gcc/native/3.4.1051/avr8-gnu-toolchain/bin/../lib/gcc/avr/4.8.1/../../../../avr/lib/avr6\libc.a(eerd_block_atmega256rfr2.o)
 .text          0x00000000        0x0 c:/program files/atmel/atmel toolchain/avr8 gcc/native/3.4.1051/avr8-gnu-toolchain/bin/../lib/gcc/avr/4.8.1/avr6\libgcc.a(_mulshisi3.o)
 .bss           0x00000000        0x0 c:/program files/atmel/atmel toolchain/avr8 gcc/native/3.4.1051/avr8-gnu-toolchain/bin/../lib/gcc/avr/4.8.1/avr6\libgcc.a(_mulshisi3.o)
 .text.libgcc.div
                0x00000000        0x0 c:/program files/atmel/atmel toolchain/avr8 gcc/native/3.4.1051/avr8-gnu-toolchain/bin/../lib/gcc/avr/4.8.1/avr6\libgcc.a(_mulshisi3.o)
 .text.libgcc   0x00000000        0x0 c:/program files/atmel/atmel toolchain/avr8 gcc/native/3.4.1051/avr8-gnu-toolchain/bin/../lib/gcc/avr/4.8.1/avr6\libgcc.a(_mulshisi3.o)
 .text.libgcc.prologue
                0x00000000        0x0 c:/program files/atmel/atmel toolchain/avr8 gcc/native/3.4.1051/avr8-gnu-toolchain/bin/../lib/gcc/avr/4.8.1/avr6\libgcc.a(_mulshisi3.o)
 .text.libgcc.builtins
                0x00000000        0x0 c:/program files/atmel/atmel toolchain/avr8 gcc/native/3.4.1051/avr8-gnu-toolchain/bin/../lib/gcc/avr/4.8.1/avr6\libgcc.a(_mulshisi3.o)
 .text.libgcc.fmul
                0x00000000        0x0 c:/program files/atmel/atmel toolchain/avr8 gcc/native/3.4.1051/avr8-gnu-toolchain/bin/../lib/gcc/avr/4.8.1/avr6\libgcc.a(_mulshisi3.o)
 .text.libgcc.fixed
                0x00000000        0x0 c:/program files/atmel/atmel toolchain/avr8 gcc/native/3.4.1051/avr8-gnu-toolchain/bin/../lib/gcc/avr/4.8.1/avr6\libgcc.a(_mulshisi3.o)

Memory Configuration

Name             Origin             Length             Attributes
text             0x00000000         0x00100000         xr
data             0x00800200         0x0000fe00         rw !x
eeprom           0x00810000         0x00010000         rw !x
fuse             0x00820000         0x00000400         rw !x
lock             0x00830000         0x00000400         rw !x
signature        0x00840000         0x00000400         rw !x
user_signatures  0x00850000         0x00000400         rw !x
*default*        0x00000000         0xffffffff

Linker script and memory map

Address of section .data set to 0x800200
LOAD c:/program files/atmel/atmel toolchain/avr8 gcc/native/3.4.1051/avr8-gnu-toolchain/bin/../lib/gcc/avr/4.8.1/../../../../avr/lib/avr6/crtm256rfr2.o
LOAD libs/CDC.o
LOAD libs/HardwareSerial.o
LOAD libs/HardwareSerial0.o
LOAD libs/HardwareSerial1.o
LOAD libs/HardwareSerial2.o
LOAD libs/HardwareSerial3.o
LOAD libs/HID.o
LOAD libs/hooks.o
LOAD libs/IPAddress.o
LOAD libs/main.o
LOAD libs/new.o
LOAD libs/Print.o
LOAD libs/Stream.o
LOAD libs/Tone.o
LOAD libs/USBCore.o
LOAD libs/WInterrupts.o
LOAD libs/wiring.o
LOAD libs/wiring_analog.o
LOAD libs/wiring_digital.o
LOAD libs/wiring_pulse.o
LOAD libs/wiring_shift.o
LOAD libs/WMath.o
LOAD libs/WString.o
LOAD libs/SPI.o
LOAD libs/twi.o
LOAD libs/Wire.o
LOAD libs/bitlash.o
LOAD libs/GSClient.o
LOAD libs/GSCore.o
LOAD libs/GSModule.o
LOAD libs/GSTcpClient.o
LOAD libs/GSUdpClient.o
LOAD libs/GSUdpServer.o
LOAD libs/j0g.o
LOAD libs/js0n.o
LOAD libs/nwk.o
LOAD libs/nwkDataReq.o
LOAD libs/nwkFrame.o
LOAD libs/nwkGroup.o
LOAD libs/nwkRoute.o
LOAD libs/nwkRouteDiscovery.o
LOAD libs/nwkRx.o
LOAD libs/nwkSecurity.o
LOAD libs/nwkTx.o
LOAD libs/phy.o
LOAD libs/sys.o
LOAD libs/sysEncrypt.o
LOAD libs/sysTimer.o
LOAD libs/Pbbe.o
LOAD libs/PBBP.o
LOAD libs/Backpack.o
LOAD libs/Backpacks.o
LOAD libs/WiFiBackpack.o
LOAD libs/HqInfo.o
LOAD libs/key.o
LOAD libs/Flash.o
LOAD libs/halFuelGauge.o
LOAD libs/halRgbLed.o
LOAD libs/halTemperature.o
LOAD libs/Pinoccio.o
LOAD libs/Scout.o
LOAD libs/ScoutHandler.o
LOAD libs/Shell.o
LOAD libs/memdebug.o
LOAD libs/StringBuffer.o
LOAD Bootstrap.o
START GROUP
LOAD c:/program files/atmel/atmel toolchain/avr8 gcc/native/3.4.1051/avr8-gnu-toolchain/bin/../lib/gcc/avr/4.8.1/../../../../avr/lib/avr6\libm.a
LOAD ../../../../pinoccio16mhz\libcore.a
END GROUP
LOAD c:/program files/atmel/atmel toolchain/avr8 gcc/native/3.4.1051/avr8-gnu-toolchain/bin/../lib/gcc/avr/4.8.1/avr6\libgcc.a
LOAD c:/program files/atmel/atmel toolchain/avr8 gcc/native/3.4.1051/avr8-gnu-toolchain/bin/../lib/gcc/avr/4.8.1/../../../../avr/lib/avr6\libm.a
START GROUP
LOAD c:/program files/atmel/atmel toolchain/avr8 gcc/native/3.4.1051/avr8-gnu-toolchain/bin/../lib/gcc/avr/4.8.1/avr6\libgcc.a
LOAD c:/program files/atmel/atmel toolchain/avr8 gcc/native/3.4.1051/avr8-gnu-toolchain/bin/../lib/gcc/avr/4.8.1/../../../../avr/lib/avr6\libm.a
LOAD c:/program files/atmel/atmel toolchain/avr8 gcc/native/3.4.1051/avr8-gnu-toolchain/bin/../lib/gcc/avr/4.8.1/../../../../avr/lib/avr6\libc.a
END GROUP

.hash
 *(.hash)

.dynsym
 *(.dynsym)

.dynstr
 *(.dynstr)

.gnu.version
 *(.gnu.version)

.gnu.version_d
 *(.gnu.version_d)

.gnu.version_r
 *(.gnu.version_r)

.rel.init
 *(.rel.init)

.rela.init
 *(.rela.init)

.rel.text
 *(.rel.text)
 *(.rel.text.*)
 *(.rel.gnu.linkonce.t*)

.rela.text
 *(.rela.text)
 *(.rela.text.*)
 *(.rela.gnu.linkonce.t*)

.rel.fini
 *(.rel.fini)

.rela.fini
 *(.rela.fini)

.rel.rodata
 *(.rel.rodata)
 *(.rel.rodata.*)
 *(.rel.gnu.linkonce.r*)

.rela.rodata
 *(.rela.rodata)
 *(.rela.rodata.*)
 *(.rela.gnu.linkonce.r*)

.rel.data
 *(.rel.data)
 *(.rel.data.*)
 *(.rel.gnu.linkonce.d*)

.rela.data
 *(.rela.data)
 *(.rela.data.*)
 *(.rela.gnu.linkonce.d*)

.rel.ctors
 *(.rel.ctors)

.rela.ctors
 *(.rela.ctors)

.rel.dtors
 *(.rel.dtors)

.rela.dtors
 *(.rela.dtors)

.rel.got
 *(.rel.got)

.rela.got
 *(.rela.got)

.rel.bss
 *(.rel.bss)

.rela.bss
 *(.rela.bss)

.rel.plt
 *(.rel.plt)

.rela.plt
 *(.rela.plt)

.text           0x00000000    0x17380
 *(.vectors)
 .vectors       0x00000000      0x134 c:/program files/atmel/atmel toolchain/avr8 gcc/native/3.4.1051/avr8-gnu-toolchain/bin/../lib/gcc/avr/4.8.1/../../../../avr/lib/avr6/crtm256rfr2.o
                0x00000000                __vector_default
                0x00000000                __vectors
 *(.vectors)
 *(.progmem.gcc*)
 .progmem.gcc_sw_table.analogWrite
                0x00000134       0x22 libs/wiring_analog.o
 .progmem.gcc_sw_table.turnOffPWM
                0x00000156       0x22 libs/wiring_digital.o
 .progmem.gcc_sw_table.__vector_39
                0x00000178      0x192 libs/twi.o
 .progmem.gcc_sw_table._ZN6GSCore19processResponseLineEPKhhPh
                0x0000030a       0x20 libs/GSCore.o
 .progmem.gcc_sw_table._ZN6GSCore15processIncomingEi
                0x0000032a       0x12 libs/GSCore.o
                0x0000033c                . = ALIGN (0x2)
                0x0000033c                __trampolines_start = .
 *(.trampolines)
 .trampolines   0x0000033c        0x0 linker stubs
 *(.trampolines*)
                0x0000033c                __trampolines_end = .
 *(.progmem*)
 .progmem.data._ZL21tone_pin_to_timer_PGM
                0x0000033c        0x1 libs/Tone.o
 .progmem.data.digital_pin_to_timer_PGM
                0x0000033d       0x20 libs/wiring_digital.o
                0x0000033d                digital_pin_to_timer_PGM
 .progmem.data.digital_pin_to_bit_mask_PGM
                0x0000035d       0x20 libs/wiring_digital.o
                0x0000035d                digital_pin_to_bit_mask_PGM
 .progmem.data.digital_pin_to_port_PGM
                0x0000037d       0x20 libs/wiring_digital.o
                0x0000037d                digital_pin_to_port_PGM
 .progmem.data.port_to_input_PGM
                0x0000039d       0x1a libs/wiring_digital.o
                0x0000039d                port_to_input_PGM
 .progmem.data.port_to_output_PGM
                0x000003b7       0x1a libs/wiring_digital.o
                0x000003b7                port_to_output_PGM
 .progmem.data.port_to_mode_PGM
                0x000003d1       0x1a libs/wiring_digital.o
                0x000003d1                port_to_mode_PGM
 .progmem.data._ZL11twocharsyms
                0x000003eb        0xc libs/bitlash.o
 .progmem.data._ZL13twochartokens
                0x000003f7       0x19 libs/bitlash.o
 .progmem.data._ZL17reservedwordtypes
                0x00000410       0x10 libs/bitlash.o
 .progmem.data._ZL9chartypes
                0x00000420       0x40 libs/bitlash.o
 .progmem.data._ZL7strings
                0x00000460       0xb6 libs/bitlash.o
 .progmem.data._ZL13builtin_table
                0x00000516       0x55 libs/bitlash.o
 .progmem.data._ZL14function_table
                0x0000056b       0x3c libs/bitlash.o
 .progmem.data._ZL8helptext
                0x000005a7       0xb1 libs/bitlash.o
 .progmem.data.reservedwords
                0x00000658       0x51 libs/bitlash.o
                0x00000658                reservedwords
 .progmem.data.functiondict
                0x000006a9       0x98 libs/bitlash.o
                0x000006a9                functiondict
 .progmem.data._ZZN4Pbbe12updateEepromEPNS_6EepromEjPKhhE3__c_0
                0x00000741       0x39 libs/Pbbe.o
 .progmem.data._ZZN4Pbbe12updateEepromEPNS_6EepromEjPKhhE3__c
                0x0000077a       0x35 libs/Pbbe.o
 .progmem.data._ZZN4Pbbe16parseDescriptorAEPKNS_6EepromEPNS_14DescriptorInfoEE3__c
                0x000007af       0x30 libs/Pbbe.o
 .progmem.data._ZL11uart_speeds
                0x000007df       0x2c libs/Pbbe.o
 .progmem.data._ZL10i2c_speeds
                0x0000080b        0x8 libs/Pbbe.o
 .progmem.data._ZL20descriptor_type_info
                0x00000813       0x58 libs/Pbbe.o
 .progmem.data._ZN4Pbbe17physical_pin_infoE
                0x0000086b       0xc6 libs/Pbbe.o
                0x0000086b                _ZN4Pbbe17physical_pin_infoE
 .progmem.data._ZZN9HalRgbLed12triggerEventEvE3__c_2
                0x00000931        0x2 libs/halRgbLed.o
 .progmem.data._ZZN9HalRgbLed12triggerEventEvE3__c_1
                0x00000933        0x2 libs/halRgbLed.o
 .progmem.data._ZZN9HalRgbLed12triggerEventEvE3__c_0
                0x00000935        0x2 libs/halRgbLed.o
 .progmem.data._ZZN9HalRgbLed12triggerEventEvE3__c
                0x00000937       0x1a libs/halRgbLed.o
 .progmem.data._ZZN13PinoccioClass15getDataRatekbpsEvE3__c_3
                0x00000951        0x8 libs/Pinoccio.o
 .progmem.data._ZZN13PinoccioClass15getDataRatekbpsEvE3__c_2
                0x00000959        0x7 libs/Pinoccio.o
 .progmem.data._ZZN13PinoccioClass15getDataRatekbpsEvE3__c_1
                0x00000960        0x7 libs/Pinoccio.o
 .progmem.data._ZZN13PinoccioClass15getDataRatekbpsEvE3__c_0
                0x00000967        0x9 libs/Pinoccio.o
 .progmem.data._ZZN13PinoccioClass15getDataRatekbpsEvE3__c
                0x00000970        0x9 libs/Pinoccio.o
 .progmem.data._ZZN13PinoccioClass12getTxPowerDbEvE3__c_15
                0x00000979        0x8 libs/Pinoccio.o
 .progmem.data._ZZN13PinoccioClass12getTxPowerDbEvE3__c_14
                0x00000981        0xa libs/Pinoccio.o
 .progmem.data._ZZN13PinoccioClass12getTxPowerDbEvE3__c_13
                0x0000098b        0xa libs/Pinoccio.o
 .progmem.data._ZZN13PinoccioClass12getTxPowerDbEvE3__c_12
                0x00000995        0x9 libs/Pinoccio.o
 .progmem.data._ZZN13PinoccioClass12getTxPowerDbEvE3__c_11
                0x0000099e        0x9 libs/Pinoccio.o
 .progmem.data._ZZN13PinoccioClass12getTxPowerDbEvE3__c_10
                0x000009a7        0x9 libs/Pinoccio.o
 .progmem.data._ZZN13PinoccioClass12getTxPowerDbEvE3__c_9
                0x000009b0        0x9 libs/Pinoccio.o
 .progmem.data._ZZN13PinoccioClass12getTxPowerDbEvE3__c_8
                0x000009b9        0x9 libs/Pinoccio.o
 .progmem.data._ZZN13PinoccioClass12getTxPowerDbEvE3__c_7
                0x000009c2        0x9 libs/Pinoccio.o
 .progmem.data._ZZN13PinoccioClass12getTxPowerDbEvE3__c_6
                0x000009cb        0x9 libs/Pinoccio.o
 .progmem.data._ZZN13PinoccioClass12getTxPowerDbEvE3__c_5
                0x000009d4        0x8 libs/Pinoccio.o
 .progmem.data._ZZN13PinoccioClass12getTxPowerDbEvE3__c_4
                0x000009dc        0x8 libs/Pinoccio.o
 .progmem.data._ZZN13PinoccioClass12getTxPowerDbEvE3__c_3
                0x000009e4        0x8 libs/Pinoccio.o
 .progmem.data._ZZN13PinoccioClass12getTxPowerDbEvE3__c_2
                0x000009ec        0x8 libs/Pinoccio.o
 .progmem.data._ZZN13PinoccioClass12getTxPowerDbEvE3__c_1
                0x000009f4        0x8 libs/Pinoccio.o
 .progmem.data._ZZN13PinoccioClass12getTxPowerDbEvE3__c_0
                0x000009fc        0x8 libs/Pinoccio.o
 .progmem.data._ZZN13PinoccioClass12getTxPowerDbEvE3__c
                0x00000a04        0x8 libs/Pinoccio.o
 .progmem.data._ZZN13PinoccioClass17getLastResetCauseEvE3__c_4
                0x00000a0c       0x14 libs/Pinoccio.o
 .progmem.data._ZZN13PinoccioClass17getLastResetCauseEvE3__c_3
                0x00000a20        0x5 libs/Pinoccio.o
 .progmem.data._ZZN13PinoccioClass17getLastResetCauseEvE3__c_2
                0x00000a25        0x9 libs/Pinoccio.o
 .progmem.data._ZZN13PinoccioClass17getLastResetCauseEvE3__c_1
                0x00000a2e        0xa libs/Pinoccio.o
 .progmem.data._ZZN13PinoccioClass17getLastResetCauseEvE3__c_0
                0x00000a38        0x9 libs/Pinoccio.o
 .progmem.data._ZZN13PinoccioClass17getLastResetCauseEvE3__c
                0x00000a41        0x9 libs/Pinoccio.o
 .progmem.data._ZZL35scoutDigitalStateChangeTimerHandlerP11SYS_Timer_tE3__c_2
                0x00000a4a        0x2 libs/Scout.o
 .progmem.data._ZZL35scoutDigitalStateChangeTimerHandlerP11SYS_Timer_tE3__c_1
                0x00000a4c        0x2 libs/Scout.o
 .progmem.data._ZZL35scoutDigitalStateChangeTimerHandlerP11SYS_Timer_tE3__c_0
                0x00000a4e        0x2 libs/Scout.o
 .progmem.data._ZZL35scoutDigitalStateChangeTimerHandlerP11SYS_Timer_tE3__c
                0x00000a50       0x21 libs/Scout.o
 .progmem.data._ZZL34scoutAnalogStateChangeTimerHandlerP11SYS_Timer_tE3__c_2
                0x00000a71        0x2 libs/Scout.o
 .progmem.data._ZZL34scoutAnalogStateChangeTimerHandlerP11SYS_Timer_tE3__c_1
                0x00000a73        0x2 libs/Scout.o
 .progmem.data._ZZL34scoutAnalogStateChangeTimerHandlerP11SYS_Timer_tE3__c_0
                0x00000a75        0x2 libs/Scout.o
 .progmem.data._ZZL34scoutAnalogStateChangeTimerHandlerP11SYS_Timer_tE3__c
                0x00000a77       0x20 libs/Scout.o
 .progmem.data._ZZL38scoutPeripheralStateChangeTimerHandlerP11SYS_Timer_tE3__c_8
                0x00000a97        0x2 libs/Scout.o
 .progmem.data._ZZL38scoutPeripheralStateChangeTimerHandlerP11SYS_Timer_tE3__c_7
                0x00000a99       0x22 libs/Scout.o
 .progmem.data._ZZL38scoutPeripheralStateChangeTimerHandlerP11SYS_Timer_tE3__c_6
                0x00000abb        0x2 libs/Scout.o
 .progmem.data._ZZL38scoutPeripheralStateChangeTimerHandlerP11SYS_Timer_tE3__c_5
                0x00000abd       0x2c libs/Scout.o
 .progmem.data._ZZL38scoutPeripheralStateChangeTimerHandlerP11SYS_Timer_tE3__c_4
                0x00000ae9        0x2 libs/Scout.o
 .progmem.data._ZZL38scoutPeripheralStateChangeTimerHandlerP11SYS_Timer_tE3__c_3
                0x00000aeb       0x26 libs/Scout.o
 .progmem.data._ZZL38scoutPeripheralStateChangeTimerHandlerP11SYS_Timer_tE3__c_2
                0x00000b11        0x2 libs/Scout.o
 .progmem.data._ZZL38scoutPeripheralStateChangeTimerHandlerP11SYS_Timer_tE3__c_1
                0x00000b13       0x25 libs/Scout.o
 .progmem.data._ZZL38scoutPeripheralStateChangeTimerHandlerP11SYS_Timer_tE3__c_0
                0x00000b38        0x2 libs/Scout.o
 .progmem.data._ZZL38scoutPeripheralStateChangeTimerHandlerP11SYS_Timer_tE3__c
                0x00000b3a       0x28 libs/Scout.o
 .progmem.data._ZZ13leadHQConnectvE3__c
                0x00000b62       0x12 libs/ScoutHandler.o
 .progmem.data._ZZL15announceConfirmP13NWK_DataReq_tE3__c
                0x00000b74       0x17 libs/ScoutHandler.o
 .progmem.data._ZZN20PinoccioScoutHandler8announceEjRK6StringE3__c_0
                0x00000b8b        0x2 libs/ScoutHandler.o
 .progmem.data._ZZN20PinoccioScoutHandler8announceEjRK6StringE3__c
                0x00000b8d       0x14 libs/ScoutHandler.o
 .progmem.data._ZZL23leadCommandChunkConfirmP13NWK_DataReq_tE3__c_2
                0x00000ba1        0x6 libs/ScoutHandler.o
 .progmem.data._ZZL23leadCommandChunkConfirmP13NWK_DataReq_tE3__c_1
                0x00000ba7        0x8 libs/ScoutHandler.o
 .progmem.data._ZZL23leadCommandChunkConfirmP13NWK_DataReq_tE3__c_0
                0x00000baf        0x8 libs/ScoutHandler.o
 .progmem.data._ZZL23leadCommandChunkConfirmP13NWK_DataReq_tE3__c
                0x00000bb7       0x1a libs/ScoutHandler.o
 .progmem.data._ZZL16leadCommandChunkvE3__c_0
                0x00000bd1        0x8 libs/ScoutHandler.o
 .progmem.data._ZZL16leadCommandChunkvE3__c
                0x00000bd9        0x6 libs/ScoutHandler.o
 .progmem.data._ZZL12leadIncomingPKcjPtE3__c_2
                0x00000bdf        0xa libs/ScoutHandler.o
 .progmem.data._ZZL12leadIncomingPKcjPtE3__c_1
                0x00000be9        0x5 libs/ScoutHandler.o
 .progmem.data._ZZL12leadIncomingPKcjPtE3__c_0
                0x00000bee        0x5 libs/ScoutHandler.o
 .progmem.data._ZZL12leadIncomingPKcjPtE3__c
                0x00000bf3       0x2a libs/ScoutHandler.o
 .progmem.data._ZZL12leadHQHandlevE3__c_0
                0x00000c1d       0x12 libs/ScoutHandler.o
 .progmem.data._ZZL12leadHQHandlevE3__c
                0x00000c2f       0x18 libs/ScoutHandler.o
 .progmem.data._ZZL11leadAnswersP13NWK_DataInd_tE3__c_1
                0x00000c47        0x2 libs/ScoutHandler.o
 .progmem.data._ZZL11leadAnswersP13NWK_DataInd_tE3__c_0
                0x00000c49       0x1c libs/ScoutHandler.o
 .progmem.data._ZZL11leadAnswersP13NWK_DataInd_tE3__c
                0x00000c65       0x1c libs/ScoutHandler.o
 .progmem.data._ZZL23fieldAnswerChunkConfirmP13NWK_DataReq_tE3__c_2
                0x00000c81        0x6 libs/ScoutHandler.o
 .progmem.data._ZZL23fieldAnswerChunkConfirmP13NWK_DataReq_tE3__c_1
                0x00000c87        0x8 libs/ScoutHandler.o
 .progmem.data._ZZL23fieldAnswerChunkConfirmP13NWK_DataReq_tE3__c_0
                0x00000c8f        0x8 libs/ScoutHandler.o
 .progmem.data._ZZL23fieldAnswerChunkConfirmP13NWK_DataReq_tE3__c
                0x00000c97       0x1a libs/ScoutHandler.o
 .progmem.data._ZZL16fieldAnswerChunkvE3__c_0
                0x00000cb1        0x8 libs/ScoutHandler.o
 .progmem.data._ZZL16fieldAnswerChunkvE3__c
                0x00000cb9        0x6 libs/ScoutHandler.o
 .progmem.data._ZZL13fieldCommandsP13NWK_DataInd_tE3__c_6
                0x00000cbf        0xc libs/ScoutHandler.o
 .progmem.data._ZZL13fieldCommandsP13NWK_DataInd_tE3__c_5
                0x00000ccb       0x11 libs/ScoutHandler.o
 .progmem.data._ZZL13fieldCommandsP13NWK_DataInd_tE3__c_4
                0x00000cdc       0x11 libs/ScoutHandler.o
 .progmem.data._ZZL13fieldCommandsP13NWK_DataInd_tE3__c_3
                0x00000ced       0x2b libs/ScoutHandler.o
 .progmem.data._ZZL13fieldCommandsP13NWK_DataInd_tE3__c_2
                0x00000d18        0x7 libs/ScoutHandler.o
 .progmem.data._ZZL13fieldCommandsP13NWK_DataInd_tE3__c_1
                0x00000d1f        0x3 libs/ScoutHandler.o
 .progmem.data._ZZL13fieldCommandsP13NWK_DataInd_tE3__c_0
                0x00000d22        0x6 libs/ScoutHandler.o
 .progmem.data._ZZL13fieldCommandsP13NWK_DataInd_tE3__c
                0x00000d28       0x11 libs/ScoutHandler.o
 .progmem.data._ZZL10leadSignalRK6StringE3__c_0
                0x00000d39       0x10 libs/ScoutHandler.o
 .progmem.data._ZZL10leadSignalRK6StringE3__c
                0x00000d49       0x19 libs/ScoutHandler.o
 .progmem.data._ZZL18fieldAnnouncementsP13NWK_DataInd_tE3__c
                0x00000d62        0xe libs/ScoutHandler.o
 .progmem.data._ZZL14pinoccioBannervE3__c_8
                0x00000d70       0x13 libs/Shell.o
 .progmem.data._ZZL14pinoccioBannervE3__c_7
                0x00000d83       0x12 libs/Shell.o
 .progmem.data._ZZL14pinoccioBannervE3__c_6
                0x00000d95        0x2 libs/Shell.o
 .progmem.data._ZZL14pinoccioBannervE3__c_5
                0x00000d97        0x7 libs/Shell.o
 .progmem.data._ZZL14pinoccioBannervE3__c_4
                0x00000d9e        0x8 libs/Shell.o
 .progmem.data._ZZL14pinoccioBannervE3__c_3
                0x00000da6        0x2 libs/Shell.o
 .progmem.data._ZZL14pinoccioBannervE3__c_2
                0x00000da8        0xc libs/Shell.o
 .progmem.data._ZZL14pinoccioBannervE3__c_1
                0x00000db4        0x2 libs/Shell.o
 .progmem.data._ZZL14pinoccioBannervE3__c_0
                0x00000db6       0x31 libs/Shell.o
 .progmem.data._ZZL14pinoccioBannervE3__c
                0x00000de7       0x15 libs/Shell.o
 .progmem.data._ZZL11sendConfirmP13NWK_DataReq_tE3__c_9
                0x00000dfc        0x2 libs/Shell.o
 .progmem.data._ZZL11sendConfirmP13NWK_DataReq_tE3__c_8
                0x00000dfe        0x2 libs/Shell.o
 .progmem.data._ZZL11sendConfirmP13NWK_DataReq_tE3__c_7
                0x00000e00       0x12 libs/Shell.o
 .progmem.data._ZZL11sendConfirmP13NWK_DataReq_tE3__c_6
                0x00000e12       0x22 libs/Shell.o
 .progmem.data._ZZL11sendConfirmP13NWK_DataReq_tE3__c_5
                0x00000e34       0x1a libs/Shell.o
 .progmem.data._ZZL11sendConfirmP13NWK_DataReq_tE3__c_4
                0x00000e4e       0x1e libs/Shell.o
 .progmem.data._ZZL11sendConfirmP13NWK_DataReq_tE3__c_3
                0x00000e6c       0x10 libs/Shell.o
 .progmem.data._ZZL11sendConfirmP13NWK_DataReq_tE3__c_2
                0x00000e7c        0x8 libs/Shell.o
 .progmem.data._ZZL11sendConfirmP13NWK_DataReq_tE3__c_1
                0x00000e84        0x2 libs/Shell.o
 .progmem.data._ZZL11sendConfirmP13NWK_DataReq_tE3__c_0
                0x00000e86       0x20 libs/Shell.o
 .progmem.data._ZZL11sendConfirmP13NWK_DataReq_tE3__c
                0x00000ea6       0x27 libs/Shell.o
 .progmem.data._ZZL11sendMessageiRK6StringE3__c_0
                0x00000ecd        0x3 libs/Shell.o
 .progmem.data._ZZL11sendMessageiRK6StringE3__c
                0x00000ed0       0x17 libs/Shell.o
 .progmem.data._ZZL11meshRoutingvE3__c_7
                0x00000ee7        0x7 libs/Shell.o
 .progmem.data._ZZL11meshRoutingvE3__c_6
                0x00000eee        0xc libs/Shell.o
 .progmem.data._ZZL11meshRoutingvE3__c_5
                0x00000efa        0xd libs/Shell.o
 .progmem.data._ZZL11meshRoutingvE3__c_4
                0x00000f07        0xe libs/Shell.o
 .progmem.data._ZZL11meshRoutingvE3__c_3
                0x00000f15        0xe libs/Shell.o
 .progmem.data._ZZL11meshRoutingvE3__c_2
                0x00000f23        0xe libs/Shell.o
 .progmem.data._ZZL11meshRoutingvE3__c_1
                0x00000f31        0xe libs/Shell.o
 .progmem.data._ZZL11meshRoutingvE3__c_0
                0x00000f3f        0x8 libs/Shell.o
 .progmem.data._ZZL11meshRoutingvE3__c
                0x00000f47       0x64 libs/Shell.o
 .progmem.data._ZZL9allReportvE3__c
                0x00000fab       0x14 libs/Shell.o
 .progmem.data._ZZL12pinMakeInputvE3__c_0
                0x00000fbf       0x23 libs/Shell.o
 .progmem.data._ZZL12pinMakeInputvE3__c
                0x00000fe2       0x13 libs/Shell.o
 .progmem.data._ZZL13pinMakeOutputvE3__c_0
                0x00000ff5       0x23 libs/Shell.o
 .progmem.data._ZZL13pinMakeOutputvE3__c
                0x00001018       0x13 libs/Shell.o
 .progmem.data._ZZL10pinDisablevE3__c_0
                0x0000102b       0x23 libs/Shell.o
 .progmem.data._ZZL10pinDisablevE3__c
                0x0000104e       0x13 libs/Shell.o
 .progmem.data._ZZL10pinSetModevE3__c_0
                0x00001061       0x23 libs/Shell.o
 .progmem.data._ZZL10pinSetModevE3__c
                0x00001084       0x13 libs/Shell.o
 .progmem.data._ZZL7pinReadvE3__c
                0x00001097       0x13 libs/Shell.o
 .progmem.data._ZZL8pinWritevE3__c_0
                0x000010aa       0x12 libs/Shell.o
 .progmem.data._ZZL8pinWritevE3__c
                0x000010bc       0x13 libs/Shell.o
 .progmem.data._ZZL7pinSavevE3__c_1
                0x000010cf       0x11 libs/Shell.o
 .progmem.data._ZZL7pinSavevE3__c_0
                0x000010e0       0x23 libs/Shell.o
 .progmem.data._ZZL7pinSavevE3__c
                0x00001103       0x13 libs/Shell.o
 .progmem.data._ZZL12backpackListvE3__c_3
                0x00001116        0x2 libs/Shell.o
 .progmem.data._ZZL12backpackListvE3__c_2
                0x00001118        0x3 libs/Shell.o
 .progmem.data._ZZL12backpackListvE3__c_1
                0x0000111b       0x13 libs/Shell.o
 .progmem.data._ZZL12backpackListvE3__c_0
                0x0000112e        0x3 libs/Shell.o
 .progmem.data._ZZL12backpackListvE3__c
                0x00001131       0x13 libs/Shell.o
 .progmem.data._ZZL14backpackEepromvE3__c_0
                0x00001144       0x17 libs/Shell.o
 .progmem.data._ZZL14backpackEepromvE3__c
                0x0000115b       0x18 libs/Shell.o
 .progmem.data._ZZL20backpackUpdateEepromvE3__c_1
                0x00001173       0x17 libs/Shell.o
 .progmem.data._ZZL20backpackUpdateEepromvE3__c_0
                0x0000118a       0x18 libs/Shell.o
 .progmem.data._ZZL20backpackUpdateEepromvE3__c
                0x000011a2       0x18 libs/Shell.o
 .progmem.data._ZZL14backpackDetailvE3__c_13
                0x000011ba        0x7 libs/Shell.o
 .progmem.data._ZZL14backpackDetailvE3__c_12
                0x000011c1        0xe libs/Shell.o
 .progmem.data._ZZL14backpackDetailvE3__c_11
                0x000011cf        0x7 libs/Shell.o
 .progmem.data._ZZL14backpackDetailvE3__c_10
                0x000011d6        0xe libs/Shell.o
 .progmem.data._ZZL14backpackDetailvE3__c_9
                0x000011e4        0x3 libs/Shell.o
 .progmem.data._ZZL14backpackDetailvE3__c_8
                0x000011e7       0x18 libs/Shell.o
 .progmem.data._ZZL14backpackDetailvE3__c_7
                0x000011ff       0x20 libs/Shell.o
 .progmem.data._ZZL14backpackDetailvE3__c_6
                0x0000121f        0x3 libs/Shell.o
 .progmem.data._ZZL14backpackDetailvE3__c_5
                0x00001222       0x20 libs/Shell.o
 .progmem.data._ZZL14backpackDetailvE3__c_4
                0x00001242       0x12 libs/Shell.o
 .progmem.data._ZZL14backpackDetailvE3__c_3
                0x00001254        0x2 libs/Shell.o
 .progmem.data._ZZL14backpackDetailvE3__c_2
                0x00001256       0x11 libs/Shell.o
 .progmem.data._ZZL14backpackDetailvE3__c_1
                0x00001267       0x11 libs/Shell.o
 .progmem.data._ZZL14backpackDetailvE3__c_0
                0x00001278       0x10 libs/Shell.o
 .progmem.data._ZZL14backpackDetailvE3__c
                0x00001288       0x18 libs/Shell.o
 .progmem.data._ZZL17backpackResourcesvE3__c_25
                0x000012a0        0xd libs/Shell.o
 .progmem.data._ZZL17backpackResourcesvE3__c_24
                0x000012ad       0x12 libs/Shell.o
 .progmem.data._ZZL17backpackResourcesvE3__c_23
                0x000012bf        0x5 libs/Shell.o
 .progmem.data._ZZL17backpackResourcesvE3__c_22
                0x000012c4        0xf libs/Shell.o
 .progmem.data._ZZL17backpackResourcesvE3__c_21
                0x000012d3       0x12 libs/Shell.o
 .progmem.data._ZZL17backpackResourcesvE3__c_20
                0x000012e5        0x8 libs/Shell.o
 .progmem.data._ZZL17backpackResourcesvE3__c_19
                0x000012ed        0x3 libs/Shell.o
 .progmem.data._ZZL17backpackResourcesvE3__c_18
                0x000012f0        0xd libs/Shell.o
 .progmem.data._ZZL17backpackResourcesvE3__c_17
                0x000012fd        0x8 libs/Shell.o
 .progmem.data._ZZL17backpackResourcesvE3__c_16
                0x00001305        0x3 libs/Shell.o
 .progmem.data._ZZL17backpackResourcesvE3__c_15
                0x00001308        0xd libs/Shell.o
 .progmem.data._ZZL17backpackResourcesvE3__c_14
                0x00001315        0x8 libs/Shell.o
 .progmem.data._ZZL17backpackResourcesvE3__c_13
                0x0000131d        0x3 libs/Shell.o
 .progmem.data._ZZL17backpackResourcesvE3__c_12
                0x00001320        0xd libs/Shell.o
 .progmem.data._ZZL17backpackResourcesvE3__c_11
                0x0000132d        0xe libs/Shell.o
 .progmem.data._ZZL17backpackResourcesvE3__c_10
                0x0000133b        0xf libs/Shell.o
 .progmem.data._ZZL17backpackResourcesvE3__c_9
                0x0000134a        0x8 libs/Shell.o
 .progmem.data._ZZL17backpackResourcesvE3__c_8
                0x00001352        0x4 libs/Shell.o
 .progmem.data._ZZL17backpackResourcesvE3__c_7
                0x00001356        0xb libs/Shell.o
 .progmem.data._ZZL17backpackResourcesvE3__c_6
                0x00001361        0x8 libs/Shell.o
 .progmem.data._ZZL17backpackResourcesvE3__c_5
                0x00001369        0xe libs/Shell.o
 .progmem.data._ZZL17backpackResourcesvE3__c_4
                0x00001377        0x8 libs/Shell.o
 .progmem.data._ZZL17backpackResourcesvE3__c_3
                0x0000137f        0x4 libs/Shell.o
 .progmem.data._ZZL17backpackResourcesvE3__c_2
                0x00001383        0xf libs/Shell.o
 .progmem.data._ZZL17backpackResourcesvE3__c_1
                0x00001392        0xd libs/Shell.o
 .progmem.data._ZZL17backpackResourcesvE3__c_0
                0x0000139f       0x2e libs/Shell.o
 .progmem.data._ZZL17backpackResourcesvE3__c
                0x000013cd       0x18 libs/Shell.o
 .progmem.data._ZZL9daisyWipevE3__c_2
                0x000013e5       0x23 libs/Shell.o
 .progmem.data._ZZL9daisyWipevE3__c_1
                0x00001408       0x23 libs/Shell.o
 .progmem.data._ZZL9daisyWipevE3__c_0
                0x0000142b       0x1f libs/Shell.o
 .progmem.data._ZZL9daisyWipevE3__c
                0x0000144a       0x38 libs/Shell.o
 .progmem.data._ZZL8wifiListvE3__c
                0x00001482       0x13 libs/Shell.o
 .progmem.data._ZZL10wifiConfigvE3__c
                0x00001495       0x33 libs/Shell.o
 .progmem.data._ZZL8wifiDhcpvE3__c
                0x000014c8       0x33 libs/Shell.o
 .progmem.data._ZZL10wifiStaticvE3__c_3
                0x000014fb       0x33 libs/Shell.o
 .progmem.data._ZZL10wifiStaticvE3__c_2
                0x0000152e       0x1a libs/Shell.o
 .progmem.data._ZZL10wifiStaticvE3__c_1
                0x00001548       0x17 libs/Shell.o
 .progmem.data._ZZL10wifiStaticvE3__c_0
                0x0000155f       0x17 libs/Shell.o
 .progmem.data._ZZL10wifiStaticvE3__c
                0x00001576       0x1a libs/Shell.o
 .progmem.data._ZZL11wifiCommandvE3__c
                0x00001590       0x23 libs/Shell.o
 .progmem.data._ZZL8wifiPingvE3__c
                0x000015b3       0x21 libs/Shell.o
 .progmem.data._ZZL13wifiDNSLookupvE3__c
                0x000015d4       0x27 libs/Shell.o
 .progmem.data._ZZL11wifiGetTimevE3__c
                0x000015fb       0x2c libs/Shell.o
 .progmem.data._ZZL9wifiSleepvE3__c
                0x00001627       0x22 libs/Shell.o
 .progmem.data._ZZL10wifiWakeupvE3__c
                0x00001649       0x23 libs/Shell.o
 .progmem.data._ZZL9wifiStatsvE3__c_0
                0x0000166c       0x29 libs/Shell.o
 .progmem.data._ZZL9wifiStatsvE3__c
                0x00001695       0x29 libs/Shell.o
 .progmem.data._ZZL22digitalPinEventHandlerhaaE3__c_0
                0x000016be        0x3 libs/Shell.o
 .progmem.data._ZZL22digitalPinEventHandlerhaaE3__c
                0x000016c1       0x20 libs/Shell.o
 .progmem.data._ZZL21analogPinEventHandlerhiaE3__c_0
                0x000016e1        0x3 libs/Shell.o
 .progmem.data._ZZL21analogPinEventHandlerhiaE3__c
                0x000016e4       0x1f libs/Shell.o
 .progmem.data._ZZL14receiveMessageP13NWK_DataInd_tE3__c_2
                0x00001703        0x7 libs/Shell.o
 .progmem.data._ZZL14receiveMessageP13NWK_DataInd_tE3__c_1
                0x0000170a        0x6 libs/Shell.o
 .progmem.data._ZZL14receiveMessageP13NWK_DataInd_tE3__c_0
                0x00001710        0x7 libs/Shell.o
 .progmem.data._ZZL14receiveMessageP13NWK_DataInd_tE3__c
                0x00001717       0x15 libs/Shell.o
                0x0000172c                . = ALIGN (0x2)
 *(.jumptables)
 *(.jumptables*)
 *(.lowtext)
 *(.lowtext*)
                0x0000172c                __ctors_start = .
 *(.ctors)
 .ctors         0x0000172c        0x2 libs/HardwareSerial0.o
 .ctors         0x0000172e        0x2 libs/HardwareSerial1.o
 .ctors         0x00001730        0x2 libs/IPAddress.o
 .ctors         0x00001732        0x2 libs/Wire.o
 .ctors         0x00001734        0x2 libs/GSClient.o
 .ctors         0x00001736        0x2 libs/GSCore.o
 .ctors         0x00001738        0x2 libs/GSModule.o
 .ctors         0x0000173a        0x2 libs/GSTcpClient.o
 .ctors         0x0000173c        0x2 libs/GSUdpClient.o
 .ctors         0x0000173e        0x2 libs/GSUdpServer.o
 .ctors         0x00001740        0x2 libs/Backpack.o
 .ctors         0x00001742        0x2 libs/Backpacks.o
 .ctors         0x00001744        0x2 libs/WiFiBackpack.o
 .ctors         0x00001746        0x2 libs/halRgbLed.o
 .ctors         0x00001748        0x2 libs/Scout.o
 .ctors         0x0000174a        0x2 libs/ScoutHandler.o
 .ctors         0x0000174c        0x2 libs/Shell.o
 .ctors         0x0000174e        0x2 libs/StringBuffer.o
 .ctors         0x00001750        0x2 Bootstrap.o
                0x00001752                __ctors_end = .
                0x00001752                __dtors_start = .
 *(.dtors)
 .dtors         0x00001752        0x2 libs/Scout.o
 .dtors         0x00001754        0x2 libs/ScoutHandler.o
                0x00001756                __dtors_end = .
 SORT(*)(.ctors)
 SORT(*)(.dtors)
 *(.init0)
 .init0         0x00001756        0x0 c:/program files/atmel/atmel toolchain/avr8 gcc/native/3.4.1051/avr8-gnu-toolchain/bin/../lib/gcc/avr/4.8.1/../../../../avr/lib/avr6/crtm256rfr2.o
                0x00001756                __init
 *(.init0)
 *(.init1)
 *(.init1)
 *(.init2)
 .init2         0x00001756       0x10 c:/program files/atmel/atmel toolchain/avr8 gcc/native/3.4.1051/avr8-gnu-toolchain/bin/../lib/gcc/avr/4.8.1/../../../../avr/lib/avr6/crtm256rfr2.o
 *(.init2)
 *(.init3)
 *(.init3)
 *(.init4)
 .init4         0x00001766       0x1a c:/program files/atmel/atmel toolchain/avr8 gcc/native/3.4.1051/avr8-gnu-toolchain/bin/../lib/gcc/avr/4.8.1/avr6\libgcc.a(_copy_data.o)
                0x00001766                __do_copy_data
 .init4         0x00001780       0x10 c:/program files/atmel/atmel toolchain/avr8 gcc/native/3.4.1051/avr8-gnu-toolchain/bin/../lib/gcc/avr/4.8.1/avr6\libgcc.a(_clear_bss.o)
                0x00001780                __do_clear_bss
 *(.init4)
 *(.init5)
 *(.init5)
 *(.init6)
 .init6         0x00001790       0x20 c:/program files/atmel/atmel toolchain/avr8 gcc/native/3.4.1051/avr8-gnu-toolchain/bin/../lib/gcc/avr/4.8.1/avr6\libgcc.a(_ctors.o)
                0x00001790                __do_global_ctors
 *(.init6)
 *(.init7)
 *(.init7)
 *(.init8)
 *(.init8)
 *(.init9)
 .init9         0x000017b0        0x6 c:/program files/atmel/atmel toolchain/avr8 gcc/native/3.4.1051/avr8-gnu-toolchain/bin/../lib/gcc/avr/4.8.1/../../../../avr/lib/avr6/crtm256rfr2.o
 *(.init9)
 *(.text)
 .text          0x000017b6        0x4 c:/program files/atmel/atmel toolchain/avr8 gcc/native/3.4.1051/avr8-gnu-toolchain/bin/../lib/gcc/avr/4.8.1/../../../../avr/lib/avr6/crtm256rfr2.o
                0x000017b6                __vector_38
                0x000017b6                __vector_22
                0x000017b6                __vector_63
                0x000017b6                __vector_28
                0x000017b6                __vector_67
                0x000017b6                __vector_32
                0x000017b6                __vector_75
                0x000017b6                __vector_71
                0x000017b6                __vector_34
                0x000017b6                __vector_62
                0x000017b6                __vector_24
                0x000017b6                __vector_12
                0x000017b6                __vector_55
                0x000017b6                __vector_69
                0x000017b6                __vector_46
                0x000017b6                __bad_interrupt
                0x000017b6                __vector_72
                0x000017b6                __vector_31
                0x000017b6                __vector_35
                0x000017b6                __vector_74
                0x000017b6                __vector_68
                0x000017b6                __vector_30
                0x000017b6                __vector_73
                0x000017b6                __vector_45
                0x000017b6                __vector_61
                0x000017b6                __vector_11
                0x000017b6                __vector_54
                0x000017b6                __vector_17
                0x000017b6                __vector_19
                0x000017b6                __vector_56
                0x000017b6                __vector_49
                0x000017b6                __vector_41
                0x000017b6                __vector_64
                0x000017b6                __vector_43
                0x000017b6                __vector_27
                0x000017b6                __vector_33
                0x000017b6                __vector_76
                0x000017b6                __vector_47
                0x000017b6                __vector_52
                0x000017b6                __vector_44
                0x000017b6                __vector_51
                0x000017b6                __vector_9
                0x000017b6                __vector_21
                0x000017b6                __vector_15
                0x000017b6                __vector_66
                0x000017b6                __vector_58
                0x000017b6                __vector_70
                0x000017b6                __vector_29
                0x000017b6                __vector_60
                0x000017b6                __vector_40
                0x000017b6                __vector_48
                0x000017b6                __vector_14
                0x000017b6                __vector_57
                0x000017b6                __vector_53
                0x000017b6                __vector_10
                0x000017b6                __vector_50
                0x000017b6                __vector_16
                0x000017b6                __vector_59
                0x000017b6                __vector_18
                0x000017b6                __vector_20
                0x000017b6                __vector_42
                0x000017b6                __vector_65
                0x000017ba                . = ALIGN (0x2)
 *(.text.*)
 .text._ZN14HardwareSerial9availableEv
                0x000017ba       0x16 libs/HardwareSerial.o
                0x000017ba                _ZN14HardwareSerial9availableEv
 .text._ZN14HardwareSerial4peekEv
                0x000017d0       0x1c libs/HardwareSerial.o
                0x000017d0                _ZN14HardwareSerial4peekEv
 .text._ZN14HardwareSerial4readEv
                0x000017ec       0x28 libs/HardwareSerial.o
                0x000017ec                _ZN14HardwareSerial4readEv
 .text._Z14serialEventRunv
                0x00001814       0x3a libs/HardwareSerial.o
                0x00001814                _Z14serialEventRunv
 .text._ZN14HardwareSerial17_tx_udr_empty_irqEv
                0x0000184e       0x42 libs/HardwareSerial.o
                0x0000184e                _ZN14HardwareSerial17_tx_udr_empty_irqEv
 .text._ZN14HardwareSerial5flushEv
                0x00001890       0x42 libs/HardwareSerial.o
                0x00001890                _ZN14HardwareSerial5flushEv
 .text._ZN14HardwareSerial5writeEh
                0x000018d2       0xc8 libs/HardwareSerial.o
                0x000018d2                _ZN14HardwareSerial5writeEh
 .text._ZN14HardwareSerial5beginEmh
                0x0000199a       0xc4 libs/HardwareSerial.o
                0x0000199a                _ZN14HardwareSerial5beginEmh
 .text.__vector_25
                0x00001a5e       0x6c libs/HardwareSerial0.o
                0x00001a5e                __vector_25
 .text.__vector_26
                0x00001aca       0x52 libs/HardwareSerial0.o
                0x00001aca                __vector_26
 .text._Z17Serial0_availablev
                0x00001b1c       0x12 libs/HardwareSerial0.o
                0x00001b1c                _Z17Serial0_availablev
 .text.startup._GLOBAL__sub_I___vector_25
                0x00001b2e       0x86 libs/HardwareSerial0.o
 .text.__vector_36
                0x00001bb4       0x6c libs/HardwareSerial1.o
                0x00001bb4                __vector_36
 .text.__vector_37
                0x00001c20       0x52 libs/HardwareSerial1.o
                0x00001c20                __vector_37
 .text._Z17Serial1_availablev
                0x00001c72       0x12 libs/HardwareSerial1.o
                0x00001c72                _Z17Serial1_availablev
 .text.startup._GLOBAL__sub_I___vector_36
                0x00001c84       0x86 libs/HardwareSerial1.o
 .text.__empty  0x00001d0a        0x2 libs/hooks.o
                0x00001d0a                yield
 .text._ZNK9IPAddress7printToER5Print
                0x00001d0c       0x6e libs/IPAddress.o
                0x00001d0c                _ZNK9IPAddress7printToER5Print
 .text._ZN9IPAddressC2Ev
                0x00001d7a       0x14 libs/IPAddress.o
                0x00001d7a                _ZN9IPAddressC1Ev
                0x00001d7a                _ZN9IPAddressC2Ev
 .text._ZN9IPAddressC2Ehhhh
                0x00001d8e       0x18 libs/IPAddress.o
                0x00001d8e                _ZN9IPAddressC2Ehhhh
                0x00001d8e                _ZN9IPAddressC1Ehhhh
 .text._ZN9IPAddressaSEm
                0x00001da6        0xc libs/IPAddress.o
                0x00001da6                _ZN9IPAddressaSEm
 .text.startup._GLOBAL__sub_I__ZN9IPAddressC2Ev
                0x00001db2       0x1e libs/IPAddress.o
 .text.startup.main
                0x00001dd0       0x16 libs/main.o
                0x00001dd0                main
 .text._ZN5Print5writeEPKhj
                0x00001de6       0x50 libs/Print.o
                0x00001de6                _ZN5Print5writeEPKhj
 .text._ZN5Print5writeEPKc
                0x00001e36       0x2c libs/Print.o
                0x00001e36                _ZN5Print5writeEPKc
 .text._ZN5Print5printEPK19__FlashStringHelper
                0x00001e62       0x4a libs/Print.o
                0x00001e62                _ZN5Print5printEPK19__FlashStringHelper
 .text._ZN5Print5printERK6String
                0x00001eac       0x1c libs/Print.o
                0x00001eac                _ZN5Print5printERK6String
 .text._ZN5Print5printEPKc
                0x00001ec8        0x2 libs/Print.o
                0x00001ec8                _ZN5Print5printEPKc
 .text._ZN5Print5printEc
                0x00001eca        0xe libs/Print.o
                0x00001eca                _ZN5Print5printEc
 .text._ZN5Print7printlnEv
                0x00001ed8       0x24 libs/Print.o
                0x00001ed8                _ZN5Print7printlnEv
 .text._ZN5Print7printlnEPK19__FlashStringHelper
                0x00001efc       0x20 libs/Print.o
                0x00001efc                _ZN5Print7printlnEPK19__FlashStringHelper
 .text._ZN5Print7printlnERK6String
                0x00001f1c       0x20 libs/Print.o
                0x00001f1c                _ZN5Print7printlnERK6String
 .text._ZN5Print7printlnEPKc
                0x00001f3c       0x20 libs/Print.o
                0x00001f3c                _ZN5Print7printlnEPKc
 .text._ZN5Print11printNumberEmh
                0x00001f5c       0xb0 libs/Print.o
                0x00001f5c                _ZN5Print11printNumberEmh
 .text._ZN5Print5printEli
                0x0000200c       0x8e libs/Print.o
                0x0000200c                _ZN5Print5printEli
 .text._ZN5Print5printEii
                0x0000209a        0xe libs/Print.o
                0x0000209a                _ZN5Print5printEii
 .text._ZN5Print7printlnEii
                0x000020a8       0x2c libs/Print.o
                0x000020a8                _ZN5Print7printlnEii
 .text._ZN5Print5printEmi
                0x000020d4       0x18 libs/Print.o
                0x000020d4                _ZN5Print5printEmi
 .text._ZN5Print5printEhi
                0x000020ec        0xc libs/Print.o
                0x000020ec                _ZN5Print5printEhi
 .text._ZN5Print7printlnEhi
                0x000020f8       0x2a libs/Print.o
                0x000020f8                _ZN5Print7printlnEhi
 .text._ZN5Print5printEji
                0x00002122        0xa libs/Print.o
                0x00002122                _ZN5Print5printEji
 .text._ZN5Print7printlnEji
                0x0000212c       0x28 libs/Print.o
                0x0000212c                _ZN5Print7printlnEji
 .text._ZN5Print7printlnEmi
                0x00002154       0x20 libs/Print.o
                0x00002154                _ZN5Print7printlnEmi
 .text._ZN5Print10printFloatEdh
                0x00002174      0x1cc libs/Print.o
                0x00002174                _ZN5Print10printFloatEdh
 .text._ZN5Print5printEdi
                0x00002340        0x2 libs/Print.o
                0x00002340                _ZN5Print5printEdi
 .text._Z12disableTimerh
                0x00002342       0x62 libs/Tone.o
                0x00002342                _Z12disableTimerh
 .text._Z6noToneh
                0x000023a4       0x26 libs/Tone.o
                0x000023a4                _Z6noToneh
 .text.__vector_13
                0x000023ca       0xbe libs/Tone.o
                0x000023ca                __vector_13
 .text.__vector_1
                0x00002488       0x62 libs/WInterrupts.o
                0x00002488                __vector_1
 .text.__vector_2
                0x000024ea       0x62 libs/WInterrupts.o
                0x000024ea                __vector_2
 .text.__vector_3
                0x0000254c       0x62 libs/WInterrupts.o
                0x0000254c                __vector_3
 .text.__vector_4
                0x000025ae       0x62 libs/WInterrupts.o
                0x000025ae                __vector_4
 .text.__vector_5
                0x00002610       0x62 libs/WInterrupts.o
                0x00002610                __vector_5
 .text.__vector_6
                0x00002672       0x62 libs/WInterrupts.o
                0x00002672                __vector_6
 .text.__vector_7
                0x000026d4       0x62 libs/WInterrupts.o
                0x000026d4                __vector_7
 .text.__vector_8
                0x00002736       0x62 libs/WInterrupts.o
                0x00002736                __vector_8
 .text.__vector_23
                0x00002798       0x94 libs/wiring.o
                0x00002798                __vector_23
 .text.millis   0x0000282c       0x18 libs/wiring.o
                0x0000282c                millis
 .text.micros   0x00002844       0x4c libs/wiring.o
                0x00002844                micros
 .text.delay    0x00002890       0x52 libs/wiring.o
                0x00002890                delay
 .text.delayMicroseconds
                0x000028e2       0x16 libs/wiring.o
                0x000028e2                delayMicroseconds
 .text.init     0x000028f8       0xc4 libs/wiring.o
                0x000028f8                init
 .text.analogRead
                0x000029bc       0x48 libs/wiring_analog.o
                0x000029bc                analogRead
 .text.analogWrite
                0x00002a04      0x17c libs/wiring_analog.o
                0x00002a04                analogWrite
 .text.turnOffPWM
                0x00002b80       0xc2 libs/wiring_digital.o
 .text.pinMode  0x00002c42       0x7c libs/wiring_digital.o
                0x00002c42                pinMode
 .text.digitalWrite
                0x00002cbe       0x60 libs/wiring_digital.o
                0x00002cbe                digitalWrite
 .text.digitalRead
                0x00002d1e       0x52 libs/wiring_digital.o
                0x00002d1e                digitalRead
 .text.pulseIn  0x00002d70      0x18c libs/wiring_pulse.o
                0x00002d70                pulseIn
 .text._ZN6StringD2Ev
                0x00002efc        0xa libs/WString.o
                0x00002efc                _ZN6StringD2Ev
                0x00002efc                _ZN6StringD1Ev
 .text._ZN6String10invalidateEv
                0x00002f06       0x24 libs/WString.o
                0x00002f06                _ZN6String10invalidateEv
 .text._ZN6String12changeBufferEj
                0x00002f2a       0x34 libs/WString.o
                0x00002f2a                _ZN6String12changeBufferEj
 .text._ZN6String7reserveEj
                0x00002f5e       0x36 libs/WString.o
                0x00002f5e                _ZN6String7reserveEj
 .text._ZN6String4copyEPKcj
                0x00002f94       0x3e libs/WString.o
                0x00002f94                _ZN6String4copyEPKcj
 .text._ZN6StringC2EPKc
                0x00002fd2       0x2a libs/WString.o
                0x00002fd2                _ZN6StringC2EPKc
                0x00002fd2                _ZN6StringC1EPKc
 .text._ZN6String4copyEPK19__FlashStringHelperj
                0x00002ffc       0x3e libs/WString.o
                0x00002ffc                _ZN6String4copyEPK19__FlashStringHelperj
 .text._ZN6StringaSERKS_
                0x0000303a       0x2a libs/WString.o
                0x0000303a                _ZN6StringaSERKS_
 .text._ZN6StringC2ERKS_
                0x00003064       0x10 libs/WString.o
                0x00003064                _ZN6StringC2ERKS_
                0x00003064                _ZN6StringC1ERKS_
 .text._ZN6StringaSEPKc
                0x00003074       0x2c libs/WString.o
                0x00003074                _ZN6StringaSEPKc
 .text._ZN6StringC2Ehh
                0x000030a0       0x58 libs/WString.o
                0x000030a0                _ZN6StringC2Ehh
                0x000030a0                _ZN6StringC1Ehh
 .text._ZN6StringC2Eih
                0x000030f8       0x56 libs/WString.o
                0x000030f8                _ZN6StringC2Eih
                0x000030f8                _ZN6StringC1Eih
 .text._ZN6StringC2Ejh
                0x0000314e       0x56 libs/WString.o
                0x0000314e                _ZN6StringC1Ejh
                0x0000314e                _ZN6StringC2Ejh
 .text._ZN6StringC2Elh
                0x000031a4       0x58 libs/WString.o
                0x000031a4                _ZN6StringC2Elh
                0x000031a4                _ZN6StringC1Elh
 .text._ZN6StringC2Emh
                0x000031fc       0x58 libs/WString.o
                0x000031fc                _ZN6StringC1Emh
                0x000031fc                _ZN6StringC2Emh
 .text._ZN6StringaSEPK19__FlashStringHelper
                0x00003254       0x40 libs/WString.o
                0x00003254                _ZN6StringaSEPK19__FlashStringHelper
 .text._ZN6StringC2EPK19__FlashStringHelper
                0x00003294       0x10 libs/WString.o
                0x00003294                _ZN6StringC1EPK19__FlashStringHelper
                0x00003294                _ZN6StringC2EPK19__FlashStringHelper
 .text._ZN6String6concatEPKcj
                0x000032a4       0x56 libs/WString.o
                0x000032a4                _ZN6String6concatEPKcj
 .text._ZN6String6concatEPKc
                0x000032fa       0x1e libs/WString.o
                0x000032fa                _ZN6String6concatEPKc
 .text._ZN6String6concatEc
                0x00003318       0x26 libs/WString.o
                0x00003318                _ZN6String6concatEc
 .text._ZplRK15StringSumHelperRK6String
                0x0000333e       0x22 libs/WString.o
                0x0000333e                _ZplRK15StringSumHelperRK6String
 .text._ZplRK15StringSumHelperPKc
                0x00003360       0x30 libs/WString.o
                0x00003360                _ZplRK15StringSumHelperPKc
 .text._ZN6StringixEj
                0x00003390       0x24 libs/WString.o
                0x00003390                _ZN6StringixEj
 .text._ZNK6String8getBytesEPhjj
                0x000033b4       0x54 libs/WString.o
                0x000033b4                _ZNK6String8getBytesEPhjj
 .text._ZNK6String7indexOfEcj
                0x00003408       0x34 libs/WString.o
                0x00003408                _ZNK6String7indexOfEcj
 .text._ZNK6String7indexOfEc
                0x0000343c        0x6 libs/WString.o
                0x0000343c                _ZNK6String7indexOfEc
 .text._ZN6String6removeEjj
                0x00003442       0x60 libs/WString.o
                0x00003442                _ZN6String6removeEjj
 .text._ZN8SPIClass5beginEv
                0x000034a2       0x24 libs/SPI.o
                0x000034a2                _ZN8SPIClass5beginEv
 .text._ZN8SPIClass15setClockDividerEh
                0x000034c6       0x1c libs/SPI.o
                0x000034c6                _ZN8SPIClass15setClockDividerEh
 .text.twi_init
                0x000034e2       0x38 libs/twi.o
                0x000034e2                twi_init
 .text.twi_transmit
                0x0000351a       0x3e libs/twi.o
                0x0000351a                twi_transmit
 .text.twi_stop
                0x00003558       0x16 libs/twi.o
                0x00003558                twi_stop
 .text.twi_releaseBus
                0x0000356e        0xc libs/twi.o
                0x0000356e                twi_releaseBus
 .text.__vector_39
                0x0000357a      0x238 libs/twi.o
                0x0000357a                __vector_39
 .text._ZN7TwoWire9availableEv
                0x000037b2       0x10 libs/Wire.o
                0x000037b2                _ZN7TwoWire9availableEv
 .text._ZN7TwoWire4readEv
                0x000037c2       0x26 libs/Wire.o
                0x000037c2                _ZN7TwoWire4readEv
 .text._ZN7TwoWire4peekEv
                0x000037e8       0x1e libs/Wire.o
                0x000037e8                _ZN7TwoWire4peekEv
 .text._ZN7TwoWire5flushEv
                0x00003806        0x2 libs/Wire.o
                0x00003806                _ZN7TwoWire5flushEv
 .text._ZN7TwoWire5writeEPKhj
                0x00003808       0x58 libs/Wire.o
                0x00003808                _ZN7TwoWire5writeEPKhj
 .text._ZN7TwoWire5writeEh
                0x00003860       0x5c libs/Wire.o
                0x00003860                _ZN7TwoWire5writeEh
 .text._ZN7TwoWireC2Ev
                0x000038bc       0x20 libs/Wire.o
                0x000038bc                _ZN7TwoWireC1Ev
                0x000038bc                _ZN7TwoWireC2Ev
 .text._ZN7TwoWire5beginEv
                0x000038dc       0x12 libs/Wire.o
                0x000038dc                _ZN7TwoWire5beginEv
 .text.startup._GLOBAL__sub_I__ZN7TwoWire8rxBufferE
                0x000038ee        0x6 libs/Wire.o
 .text._Z9func_freev
                0x000038f4       0x28 libs/bitlash.o
                0x000038f4                _Z9func_freev
 .text._Z8skipbytec
                0x0000391c        0x2 libs/bitlash.o
                0x0000391c                _Z8skipbytec
 .text._Z3eofv  0x0000391e        0x4 libs/bitlash.o
                0x0000391e                _Z3eofv
 .text._Z18find_user_functionPc
                0x00003922       0xb2 libs/bitlash.o
                0x00003922                _Z18find_user_functionPc
 .text._Z11findbuiltinPc
                0x000039d4       0x80 libs/bitlash.o
                0x000039d4                _Z11findbuiltinPc
 .text._Z8cmd_bootv
                0x00003a54       0x1a libs/bitlash.o
                0x00003a54                _Z8cmd_bootv
 .text._Z6getmsgh
                0x00003a6e       0x28 libs/bitlash.o
                0x00003a6e                _Z6getmsgh
 .text._Z8chartypeh
                0x00003a96       0x24 libs/bitlash.o
                0x00003a96                _Z8chartypeh
 .text._Z7isrelopv
                0x00003aba       0x2e libs/bitlash.o
                0x00003aba                _Z7isrelopv
 .text._Z5ishexc
                0x00003ae8       0x22 libs/bitlash.o
                0x00003ae8                _Z5ishexc
 .text._Z6hexvalc
                0x00003b0a       0x16 libs/bitlash.o
                0x00003b0a                _Z6hexvalc
 .text._Z11isstringargl
                0x00003b20       0x54 libs/bitlash.o
                0x00003b20                _Z11isstringargl
 .text._Z9findindexPcPKch
                0x00003b74       0x8c libs/bitlash.o
                0x00003b74                _Z9findindexPcPKch
 .text._Z6pinnumPc
                0x00003c00       0x1a libs/bitlash.o
                0x00003c00                _Z6pinnumPc
 .text._Z10whackabyteh
                0x00003c1a       0x5c libs/bitlash.o
                0x00003c1a                _Z10whackabyteh
 .text._Z3spbc  0x00003c76       0x2e libs/bitlash.o
                0x00003c76                _Z3spbc
 .text._Z8showdictPKc
                0x00003ca4       0x30 libs/bitlash.o
                0x00003ca4                _Z8showdictPKc
 .text._Z7putlbufc
                0x00003cd4       0x2e libs/bitlash.o
                0x00003cd4                _Z7putlbufc
 .text._Z4msgph
                0x00003d02       0x1e libs/bitlash.o
                0x00003d02                _Z4msgph
 .text._Z16setOutputHandlerPFvhE
                0x00003d20        0xa libs/bitlash.o
                0x00003d20                _Z16setOutputHandlerPFvhE
 .text._Z18resetOutputHandlerv
                0x00003d2a        0xa libs/bitlash.o
                0x00003d2a                _Z18resetOutputHandlerv
 .text._Z2spPKc
                0x00003d34       0x16 libs/bitlash.o
                0x00003d34                _Z2spPKc
 .text._Z2spRK6String
                0x00003d4a       0x5c libs/bitlash.o
                0x00003d4a                _Z2spRK6String
 .text._Z2sph   0x00003da6       0x34 libs/bitlash.o
                0x00003da6                _Z2sph
 .text._Z2spj   0x00003dda       0x34 libs/bitlash.o
                0x00003dda                _Z2spj
 .text._Z2spl   0x00003e0e       0x36 libs/bitlash.o
                0x00003e0e                _Z2spl
 .text._Z2spm   0x00003e44       0x36 libs/bitlash.o
                0x00003e44                _Z2spm
 .text._Z5speolv
                0x00003e7a        0x8 libs/bitlash.o
                0x00003e7a                _Z5speolv
 .text._Z12pointToErrorv
                0x00003e82       0x42 libs/bitlash.o
                0x00003e82                _Z12pointToErrorv
 .text._Z19show_user_functionsv
                0x00003ec4       0x2a libs/bitlash.o
                0x00003ec4                _Z19show_user_functionsv
 .text._Z5msgplh
                0x00003eee        0x4 libs/bitlash.o
                0x00003eee                _Z5msgplh
 .text._Z5speolPKc
                0x00003ef2        0x4 libs/bitlash.o
                0x00003ef2                _Z5speolPKc
 .text._Z5speolRK6String
                0x00003ef6        0x4 libs/bitlash.o
                0x00003ef6                _Z5speolRK6String
 .text._Z5speolj
                0x00003efa        0x4 libs/bitlash.o
                0x00003efa                _Z5speolj
 .text._Z18printIntegerInBasemhlh
                0x00003efe      0x118 libs/bitlash.o
                0x00003efe                _Z18printIntegerInBasemhlh
 .text._Z12printIntegerllh
                0x00004016       0x78 libs/bitlash.o
                0x00004016                _Z12printIntegerllh
 .text._Z6getsymv
                0x0000408e       0x62 libs/bitlash.o
                0x0000408e                _Z6getsymv
 .text._Z8printHexm
                0x000040f0       0x1c libs/bitlash.o
                0x000040f0                _Z8printHexm
 .text._Z14markparsepointP10parsepoint
                0x0000410c       0x56 libs/bitlash.o
                0x0000410c                _Z14markparsepointP10parsepoint
 .text._Z2tbv   0x00004162       0x4c libs/bitlash.o
                0x00004162                _Z2tbv
 .text._Z6fatal2cc
                0x000041ae       0x32 libs/bitlash.o
                0x000041ae                _Z6fatal2cc
 .text._Z5fatalc
                0x000041e0        0x4 libs/bitlash.o
                0x000041e0                _Z5fatalc
 .text._Z12expectedcharh
                0x000041e4        0x6 libs/bitlash.o
                0x000041e4                _Z12expectedcharh
 .text._Z8expectedh
                0x000041ea        0x6 libs/bitlash.o
                0x000041ea                _Z8expectedh
 .text._Z10unexpectedh
                0x000041f0        0x6 libs/bitlash.o
                0x000041f0                _Z10unexpectedh
 .text._Z6chkpinc
                0x000041f6        0xa libs/bitlash.o
                0x000041f6                _Z6chkpinc
 .text._Z7setBaudlm
                0x00004200       0x9c libs/bitlash.o
                0x00004200                _Z7setBaudlm
 .text._Z9setOutputh
                0x0000429c       0x3a libs/bitlash.o
                0x0000429c                _Z9setOutputh
 .text._Z6badsymv
                0x000042d6        0x4 libs/bitlash.o
                0x000042d6                _Z6badsymv
 .text._Z7missingh
                0x000042da        0x6 libs/bitlash.o
                0x000042da                _Z7missingh
 .text._Z7reqargsh
                0x000042e0       0x26 libs/bitlash.o
                0x000042e0                _Z7reqargsh
 .text._Z9func_beepv
                0x00004306      0x11a libs/bitlash.o
                0x00004306                _Z9func_beepv
 .text._Z11func_randomv
                0x00004420       0xda libs/bitlash.o
                0x00004420                _Z11func_randomv
 .text._Z8func_inbv
                0x000044fa       0x1e libs/bitlash.o
                0x000044fa                _Z8func_inbv
 .text._Z9func_outbv
                0x00004518       0x26 libs/bitlash.o
                0x00004518                _Z9func_outbv
 .text._Z8func_absv
                0x0000453e       0x2a libs/bitlash.o
                0x0000453e                _Z8func_absv
 .text._Z9func_signv
                0x00004568       0x3c libs/bitlash.o
                0x00004568                _Z9func_signv
 .text._Z8func_minv
                0x000045a4       0x3c libs/bitlash.o
                0x000045a4                _Z8func_minv
 .text._Z8func_maxv
                0x000045e0       0x3c libs/bitlash.o
                0x000045e0                _Z8func_maxv
 .text._Z14func_constrainv
                0x0000461c       0x54 libs/bitlash.o
                0x0000461c                _Z14func_constrainv
 .text._Z7func_arv
                0x00004670       0x20 libs/bitlash.o
                0x00004670                _Z7func_arv
 .text._Z7func_awv
                0x00004690       0x24 libs/bitlash.o
                0x00004690                _Z7func_awv
 .text._Z7func_drv
                0x000046b4       0x20 libs/bitlash.o
                0x000046b4                _Z7func_drv
 .text._Z7func_dwv
                0x000046d4       0x24 libs/bitlash.o
                0x000046d4                _Z7func_dwv
 .text._Z12func_pinmodev
                0x000046f8       0x24 libs/bitlash.o
                0x000046f8                _Z12func_pinmodev
 .text._Z12func_pulseinv
                0x0000471c       0x26 libs/bitlash.o
                0x0000471c                _Z12func_pulseinv
 .text._Z10func_delayv
                0x00004742       0x22 libs/bitlash.o
                0x00004742                _Z10func_delayv
 .text._Z12func_setBaudv
                0x00004764       0x2c libs/bitlash.o
                0x00004764                _Z12func_setBaudv
 .text._Z13func_bitclearv
                0x00004790       0x4c libs/bitlash.o
                0x00004790                _Z13func_bitclearv
 .text._Z11func_bitsetv
                0x000047dc       0x44 libs/bitlash.o
                0x000047dc                _Z11func_bitsetv
 .text._Z12func_bitreadv
                0x00004820       0x36 libs/bitlash.o
                0x00004820                _Z12func_bitreadv
 .text._Z13func_bitwritev
                0x00004856       0x22 libs/bitlash.o
                0x00004856                _Z13func_bitwritev
 .text._Z6getargl
                0x00004878       0x42 libs/bitlash.o
                0x00004878                _Z6getargl
 .text._Z8isstringv
                0x000048ba       0x64 libs/bitlash.o
                0x000048ba                _Z8isstringv
 .text._Z12getstringargl
                0x0000491e       0x28 libs/bitlash.o
                0x0000491e                _Z12getstringargl
 .text._Z9underflowh
                0x00004946        0x4 libs/bitlash.o
                0x00004946                _Z9underflowh
 .text._Z4vpopv
                0x0000494a       0x28 libs/bitlash.o
                0x0000494a                _Z4vpopv
 .text._Z15releaseargblockv
                0x00004972       0x2e libs/bitlash.o
                0x00004972                _Z15releaseargblockv
 .text._Z8overflowh
                0x000049a0        0x4 libs/bitlash.o
                0x000049a0                _Z8overflowh
 .text._Z18addBitlashFunctionPKcPFlvE
                0x000049a4       0x28 libs/bitlash.o
                0x000049a4                _Z18addBitlashFunctionPKcPFlvE
 .text._Z5spushc
                0x000049cc       0x34 libs/bitlash.o
                0x000049cc                _Z5spushc
 .text._Z7strpushPc
                0x00004a00       0x16 libs/bitlash.o
                0x00004a00                _Z7strpushPc
 .text._Z5vpushl
                0x00004a16       0x32 libs/bitlash.o
                0x00004a16                _Z5vpushl
 .text._Z5vinitv
                0x00004a48       0x2a libs/bitlash.o
                0x00004a48                _Z5vinitv
 .text._Z3voph  0x00004a72      0x1c0 libs/bitlash.o
                0x00004a72                _Z3voph
 .text._Z11printBinarym
                0x00004c32       0x1c libs/bitlash.o
                0x00004c32                _Z11printBinarym
 .text._Z19func_printf_handlerhh
                0x00004c4e      0x2e4 libs/bitlash.o
                0x00004c4e                _Z19func_printf_handlerhh
 .text._Z11func_printfv
                0x00004f32        0x6 libs/bitlash.o
                0x00004f32                _Z11func_printfv
 .text._Z12initTaskListv
                0x00004f38       0x10 libs/bitlash.o
                0x00004f38                _Z12initTaskListv
 .text._Z8stopTaskh
                0x00004f48       0x1a libs/bitlash.o
                0x00004f48                _Z8stopTaskh
 .text._Z9startTaskil
                0x00004f62       0x7c libs/bitlash.o
                0x00004f62                _Z9startTaskil
 .text._Z6snoozem
                0x00004fde       0x26 libs/bitlash.o
                0x00004fde                _Z6snoozem
 .text._Z11func_snoozev
                0x00005004       0x20 libs/bitlash.o
                0x00005004                _Z11func_snoozev
 .text._Z7eewriteih
                0x00005024        0xe libs/bitlash.o
                0x00005024                _Z7eewriteih
 .text._Z10saveStringiPc
                0x00005032       0x4c libs/bitlash.o
                0x00005032                _Z10saveStringiPc
 .text._Z7func_ewv
                0x0000507e       0x24 libs/bitlash.o
                0x0000507e                _Z7func_ewv
 .text._Z6eereadi
                0x000050a2       0x10 libs/bitlash.o
                0x000050a2                _Z6eereadi
 .text._Z12findoccupiedi
                0x000050b2       0x28 libs/bitlash.o
                0x000050b2                _Z12findoccupiedi
 .text._Z14findunoccupiedi
                0x000050da       0x28 libs/bitlash.o
                0x000050da                _Z14findunoccupiedi
 .text._Z8findholei
                0x00005102       0x56 libs/bitlash.o
                0x00005102                _Z8findholei
 .text._Z7findendi
                0x00005158       0x3e libs/bitlash.o
                0x00005158                _Z7findendi
 .text._Z10eestrmatchiPc
                0x00005196       0x40 libs/bitlash.o
                0x00005196                _Z10eestrmatchiPc
 .text._Z7findKeyPc
                0x000051d6       0x44 libs/bitlash.o
                0x000051d6                _Z7findKeyPc
 .text._Z10findscriptPc
                0x0000521a       0x46 libs/bitlash.o
                0x0000521a                _Z10findscriptPc
 .text._Z8erasestri
                0x00005260       0x40 libs/bitlash.o
                0x00005260                _Z8erasestri
 .text._Z10eraseentryPc
                0x000052a0        0xc libs/bitlash.o
                0x000052a0                _Z10eraseentryPc
 .text._Z12cmd_functionv
                0x000052ac      0x12c libs/bitlash.o
                0x000052ac                _Z12cmd_functionv
 .text._Z6eeputsi
                0x000053d8       0x28 libs/bitlash.o
                0x000053d8                _Z6eeputsi
 .text._Z6cmd_lsv
                0x00005400       0x54 libs/bitlash.o
                0x00005400                _Z6cmd_lsv
 .text._Z12showTaskListv
                0x00005454       0x6e libs/bitlash.o
                0x00005454                _Z12showTaskListv
 .text._Z8cmd_peepv
                0x000054c2       0xb0 libs/bitlash.o
                0x000054c2                _Z8cmd_peepv
 .text._Z7func_erv
                0x00005572       0x20 libs/bitlash.o
                0x00005572                _Z7func_erv
 .text._Z10nukeeepromv
                0x00005592       0x28 libs/bitlash.o
                0x00005592                _Z10nukeeepromv
 .text._Z6primecv
                0x000055ba       0x74 libs/bitlash.o
                0x000055ba                _Z6primecv
 .text._Z14initparsepointhlPc
                0x0000562e       0x90 libs/bitlash.o
                0x0000562e                _Z14initparsepointhlPc
 .text._Z18returntoparsepointP10parsepointh
                0x000056be       0x40 libs/bitlash.o
                0x000056be                _Z18returntoparsepointP10parsepointh
 .text._Z6fetchcv
                0x000056fe       0x50 libs/bitlash.o
                0x000056fe                _Z6fetchcv
 .text._Z8skpwhitev
                0x0000574e       0x12 libs/bitlash.o
                0x0000574e                _Z8skpwhitev
 .text._Z11skipcommentv
                0x00005760       0x32 libs/bitlash.o
                0x00005760                _Z11skipcommentv
 .text._Z8chrconstv
                0x00005792       0x2e libs/bitlash.o
                0x00005792                _Z8chrconstv
 .text._Z7parseopv
                0x000057c0       0x42 libs/bitlash.o
                0x000057c0                _Z7parseopv
 .text._Z6litsymv
                0x00005802        0x6 libs/bitlash.o
                0x00005802                _Z6litsymv
 .text._Z8parsenumv
                0x00005808      0x102 libs/bitlash.o
                0x00005808                _Z8parsenumv
 .text._Z7parseidv
                0x0000590a      0x162 libs/bitlash.o
                0x0000590a                _Z7parseidv
 .text._Z11parsestringPFvcE
                0x00005a6c       0x9e libs/bitlash.o
                0x00005a6c                _Z11parsestringPFvcE
 .text._Z13skipstatementv
                0x00005b0a       0xf0 libs/bitlash.o
                0x00005b0a                _Z13skipstatementv
 .text._Z11func_getkeyv
                0x00005bfa       0x46 libs/bitlash.o
                0x00005bfa                _Z11func_getkeyv
 .text._Z11func_getnumv
                0x00005c40      0x160 libs/bitlash.o
                0x00005c40                _Z11func_getnumv
 .text._Z8chkbreakv
                0x00005da0       0x54 libs/bitlash.o
                0x00005da0                _Z8chkbreakv
 .text._Z12getstatementv
                0x00005df4      0x2a0 libs/bitlash.o
                0x00005df4                _Z12getstatementv
 .text._Z16getstatementlistv
                0x00006094       0x18 libs/bitlash.o
                0x00006094                _Z16getstatementlistv
 .text._Z10execscripthlPc
                0x000060ac       0xe0 libs/bitlash.o
                0x000060ac                _Z10execscripthlPc
 .text._Z18callscriptfunctionhl
                0x0000618c       0x58 libs/bitlash.o
                0x0000618c                _Z18callscriptfunctionhl
 .text._Z9getfactorv
                0x000061e4      0x372 libs/bitlash.o
                0x000061e4                _Z9getfactorv
 .text._Z7gettermv
                0x00006556       0x38 libs/bitlash.o
                0x00006556                _Z7gettermv
 .text._Z10getsimpexpv
                0x0000658e       0x32 libs/bitlash.o
                0x0000658e                _Z10getsimpexpv
 .text._Z11getshiftexpv
                0x000065c0       0x32 libs/bitlash.o
                0x000065c0                _Z11getshiftexpv
 .text._Z9getrelexpv
                0x000065f2       0x2e libs/bitlash.o
                0x000065f2                _Z9getrelexpv
 .text._Z11getbitopexpv
                0x00006620       0x38 libs/bitlash.o
                0x00006620                _Z11getbitopexpv
 .text._Z13getexpressionv
                0x00006658       0x4c libs/bitlash.o
                0x00006658                _Z13getexpressionv
 .text._Z6getnumv
                0x000066a4       0x22 libs/bitlash.o
                0x000066a4                _Z6getnumv
 .text._Z12parsearglistv
                0x000066c6      0x130 libs/bitlash.o
                0x000066c6                _Z12parsearglistv
 .text._Z14dofunctioncallh
                0x000067f6       0x66 libs/bitlash.o
                0x000067f6                _Z14dofunctioncallh
 .text._Z9cmd_printv
                0x0000685c      0x186 libs/bitlash.o
                0x0000685c                _Z9cmd_printv
 .text._Z18runBackgroundTasksv
                0x000069e2       0xd0 libs/bitlash.o
                0x000069e2                _Z18runBackgroundTasksv
 .text._Z9doCommandPc
                0x00006ab2       0x12 libs/bitlash.o
                0x00006ab2                _Z9doCommandPc
 .text._Z6promptv
                0x00006ac4       0x54 libs/bitlash.o
                0x00006ac4                _Z6promptv
 .text._Z13displayBannerv
                0x00006b18        0x6 libs/bitlash.o
                0x00006b18                _Z13displayBannerv
 .text._Z8cmd_helpv
                0x00006b1e       0x30 libs/bitlash.o
                0x00006b1e                _Z8cmd_helpv
 .text._Z18getswitchstatementv
                0x00006b4e      0x12c libs/bitlash.o
                0x00006b4e                _Z18getswitchstatementv
 .text._Z8initlbufv
                0x00006c7a       0x26 libs/bitlash.o
                0x00006c7a                _Z8initlbufv
 .text._Z11doCharacterc
                0x00006ca0       0xc8 libs/bitlash.o
                0x00006ca0                _Z11doCharacterc
 .text._Z11initBitlashm
                0x00006d68       0x40 libs/bitlash.o
                0x00006d68                _Z11initBitlashm
 .text._Z10runBitlashv
                0x00006da8       0x24 libs/bitlash.o
                0x00006da8                _Z10runBitlashv
 .text._ZN8GSClient5writeEh
                0x00006dcc       0x2c libs/GSClient.o
                0x00006dcc                _ZN8GSClient5writeEh
 .text._ZN8GSClient5flushEv
                0x00006df8        0x2 libs/GSClient.o
                0x00006df8                _ZN8GSClient5flushEv
 .text._ZN8GSClientcvbEv
                0x00006dfa       0x10 libs/GSClient.o
                0x00006dfa                _ZN8GSClientcvbEv
 .text._ZN8GSClient5writeEPKhj
                0x00006e0a       0x2a libs/GSClient.o
                0x00006e0a                _ZN8GSClient5writeEPKhj
 .text._ZN8GSClient9availableEv
                0x00006e34        0xc libs/GSClient.o
                0x00006e34                _ZN8GSClient9availableEv
 .text._ZN8GSClient4readEv
                0x00006e40        0xa libs/GSClient.o
                0x00006e40                _ZN8GSClient4readEv
 .text._ZN8GSClient4readEPhj
                0x00006e4a        0xe libs/GSClient.o
                0x00006e4a                _ZN8GSClient4readEPhj
 .text._ZN8GSClient4peekEv
                0x00006e58        0xc libs/GSClient.o
                0x00006e58                _ZN8GSClient4peekEv
 .text._ZN8GSClient4stopEv
                0x00006e64        0xc libs/GSClient.o
                0x00006e64                _ZN8GSClient4stopEv
 .text._ZN8GSClient9connectedEv
                0x00006e70       0x38 libs/GSClient.o
                0x00006e70                _ZN8GSClient9connectedEv
 .text._ZN8GSClientaSEh
                0x00006ea8        0x6 libs/GSClient.o
                0x00006ea8                _ZN8GSClientaSEh
 .text.startup._GLOBAL__sub_I__ZN8GSClient5writeEh
                0x00006eae       0x16 libs/GSClient.o
 .text._ZN6GSCore11parseNumberEPjPKhhh.part.6
                0x00006ec4       0x64 libs/GSCore.o
 .text._ZN14HardwareSerial5writeEi
                0x00006f28        0xe libs/GSCore.o
                0x00006f28                _ZN14HardwareSerial5writeEi
 .text._ZN6GSCoreC2Ev
                0x00006f36       0x34 libs/GSCore.o
                0x00006f36                _ZN6GSCoreC2Ev
                0x00006f36                _ZN6GSCoreC1Ev
 .text._ZN6GSCore11transferSpiEh
                0x00006f6a       0x2e libs/GSCore.o
                0x00006f6a                _ZN6GSCore11transferSpiEh
 .text._ZN6GSCore14parseIpAddressEP9IPAddressPKcj
                0x00006f98       0xa8 libs/GSCore.o
                0x00006f98                _ZN6GSCore14parseIpAddressEP9IPAddressPKcj
 .text._ZN6GSCore17processSpiSpecialEh
                0x00007040       0x60 libs/GSCore.o
                0x00007040                _ZN6GSCore17processSpiSpecialEh
 .text._ZN6GSCore7readRawEv
                0x000070a0       0xb8 libs/GSCore.o
                0x000070a0                _ZN6GSCore7readRawEv
 .text._ZN6GSCore12isSpiSpecialEh
                0x00007158       0x26 libs/GSCore.o
                0x00007158                _ZN6GSCore12isSpiSpecialEh
 .text._ZN6GSCore15loadFrameHeaderEPNS_7RXFrameE
                0x0000717e       0x46 libs/GSCore.o
                0x0000717e                _ZN6GSCore15loadFrameHeaderEPNS_7RXFrameE
 .text._ZN6GSCore7getDataEv
                0x000071c4       0x80 libs/GSCore.o
                0x000071c4                _ZN6GSCore7getDataEv
 .text._ZN6GSCore17processDisconnectEh
                0x00007244       0x3e libs/GSCore.o
                0x00007244                _ZN6GSCore17processDisconnectEh
 .text._ZN6GSCore21processDisassociationEv
                0x00007282       0x6e libs/GSCore.o
                0x00007282                _ZN6GSCore21processDisassociationEv
 .text._ZN6GSCore18processAssociationEv
                0x000072f0       0x36 libs/GSCore.o
                0x000072f0                _ZN6GSCore18processAssociationEv
 .text._ZN6GSCore14processConnectEhmjjb
                0x00007326       0xbc libs/GSCore.o
                0x00007326                _ZN6GSCore14processConnectEhmjjb
 .text._ZN6GSCore11parseNumberEPjPKhhh
                0x000073e2        0xe libs/GSCore.o
                0x000073e2                _ZN6GSCore11parseNumberEPjPKhhh
 .text._ZN6GSCore11parseNumberEPhPKhhh
                0x000073f0       0x3e libs/GSCore.o
                0x000073f0                _ZN6GSCore11parseNumberEPhPKhhh
 .text._ZN6GSCore19processResponseLineEPKhhPh
                0x0000742e       0xfa libs/GSCore.o
                0x0000742e                _ZN6GSCore19processResponseLineEPKhhPh
 .text._ZN6GSCore12processAsyncEv
                0x00007528      0x152 libs/GSCore.o
                0x00007528                _ZN6GSCore12processAsyncEv
 .text._ZN6GSCore15processIncomingEi
                0x0000767a      0x3ba libs/GSCore.o
                0x0000767a                _ZN6GSCore15processIncomingEi
 .text._ZN6GSCore16readDataResponseEv
                0x00007a34       0x8c libs/GSCore.o
                0x00007a34                _ZN6GSCore16readDataResponseEv
 .text._ZN6GSCore8writeRawEPKhj
                0x00007ac0       0xc0 libs/GSCore.o
                0x00007ac0                _ZN6GSCore8writeRawEPKhj
 .text._ZN6GSCore9writeDataEhPKhj
                0x00007b80       0xdc libs/GSCore.o
                0x00007b80                _ZN6GSCore9writeDataEhPKhj
 .text._ZN6GSCore12writeCommandEPKcPv
                0x00007c5c       0xaa libs/GSCore.o
                0x00007c5c                _ZN6GSCore12writeCommandEPKcPv
 .text._ZN6GSCore12writeCommandEPKcz
                0x00007d06       0x1e libs/GSCore.o
                0x00007d06                _ZN6GSCore12writeCommandEPKcz
 .text._ZN6GSCore14getFrameHeaderEh
                0x00007d24       0xd4 libs/GSCore.o
                0x00007d24                _ZN6GSCore14getFrameHeaderEh
 .text._ZN6GSCore8readDataEh
                0x00007df8       0x4c libs/GSCore.o
                0x00007df8                _ZN6GSCore8readDataEh
 .text._ZN6GSCore8readDataEhPhj
                0x00007e44      0x17a libs/GSCore.o
                0x00007e44                _ZN6GSCore8readDataEhPhj
 .text._ZN6GSCore8readDataEPh
                0x00007fbe       0x6c libs/GSCore.o
                0x00007fbe                _ZN6GSCore8readDataEPh
 .text._ZN6GSCore8dropDataEh
                0x0000802a       0x70 libs/GSCore.o
                0x0000802a                _ZN6GSCore8dropDataEh
 .text._ZN6GSCore18bufferIncomingDataEh
                0x0000809a       0x5e libs/GSCore.o
                0x0000809a                _ZN6GSCore18bufferIncomingDataEh
 .text._ZN6GSCore17bufferFrameHeaderEPKNS_7RXFrameE
                0x000080f8      0x104 libs/GSCore.o
                0x000080f8                _ZN6GSCore17bufferFrameHeaderEPKNS_7RXFrameE
 .text._ZN6GSCore13availableDataEh
                0x000081fc       0xb0 libs/GSCore.o
                0x000081fc                _ZN6GSCore13availableDataEh
 .text._ZN6GSCore8peekDataEh
                0x000082ac       0x2c libs/GSCore.o
                0x000082ac                _ZN6GSCore8peekDataEh
 .text._ZN6GSCore19readAndProcessAsyncEv
                0x000082d8       0x36 libs/GSCore.o
                0x000082d8                _ZN6GSCore19readAndProcessAsyncEv
 .text._ZN6GSCore4loopEv
                0x0000830e       0x8e libs/GSCore.o
                0x0000830e                _ZN6GSCore4loopEv
 .text.startup._GLOBAL__sub_I__ZN6GSCoreC2Ev
                0x0000839c       0x16 libs/GSCore.o
 .text._ZL9dump_bytePKcib.constprop.12
                0x000083b2       0x86 libs/GSCore.o
 .text._ZN6GSCore20readResponseInternalEPhPjS0_bPFvPKhjPvES4_
                0x00008438      0x26c libs/GSCore.o
                0x00008438                _ZN6GSCore20readResponseInternalEPhPjS0_bPFvPKhjPvES4_
 .text._ZN6GSCore12readResponseEPh
                0x000086a4       0x54 libs/GSCore.o
                0x000086a4                _ZN6GSCore12readResponseEPh
 .text._ZN6GSCore19writeCommandCheckOkEPKcz
                0x000086f8       0x38 libs/GSCore.o
                0x000086f8                _ZN6GSCore19writeCommandCheckOkEPKcz
 .text._ZN6GSCore6_beginEv
                0x00008730       0xce libs/GSCore.o
                0x00008730                _ZN6GSCore6_beginEv
 .text._ZN6GSCore5beginEhh
                0x000087fe       0x46 libs/GSCore.o
                0x000087fe                _ZN6GSCore5beginEhh
 .text._ZN6GSCore12readResponseEPFvPKhjPvES2_Ph
                0x00008844       0x62 libs/GSCore.o
                0x00008844                _ZN6GSCore12readResponseEPFvPKhjPvES2_Ph
 .text._ZL17parse_ip_responsePKhjPv
                0x000088a6       0x66 libs/GSModule.o
 .text._ZN8GSModule10connectTcpERK9IPAddressj
                0x0000890c       0xd8 libs/GSModule.o
                0x0000890c                _ZN8GSModule10connectTcpERK9IPAddressj
 .text._ZN8GSModule12disassociateEv
                0x000089e4       0x44 libs/GSModule.o
                0x000089e4                _ZN8GSModule12disassociateEv
 .text._ZN8GSModule7setDhcpEbPKc
                0x00008a28       0x50 libs/GSModule.o
                0x00008a28                _ZN8GSModule7setDhcpEbPKc
 .text._ZN8GSModule11setStaticIpERK9IPAddressS2_S2_
                0x00008a78      0x124 libs/GSModule.o
                0x00008a78                _ZN8GSModule11setStaticIpERK9IPAddressS2_S2_
 .text._ZN8GSModule6setDnsERK9IPAddress
                0x00008b9c       0x8c libs/GSModule.o
                0x00008b9c                _ZN8GSModule6setDnsERK9IPAddress
 .text._ZN8GSModule10disconnectEh
                0x00008c28       0x28 libs/GSModule.o
                0x00008c28                _ZN8GSModule10disconnectEh
 .text._ZN8GSModule8timeSyncERK9IPAddressmh
                0x00008c50       0xdc libs/GSModule.o
                0x00008c50                _ZN8GSModule8timeSyncERK9IPAddressmh
 .text._ZN8GSModule9dnsLookupEPKc
                0x00008d2c       0xa0 libs/GSModule.o
                0x00008d2c                _ZN8GSModule9dnsLookupEPKc
 .text._ZN8GSModule9enableTlsEhPKc
                0x00008dcc       0x96 libs/GSModule.o
                0x00008dcc                _ZN8GSModule9enableTlsEhPKc
 .text._ZN8GSModule7addCertEPKcbPKhj
                0x00008e62       0x92 libs/GSModule.o
                0x00008e62                _ZN8GSModule7addCertEPKcbPKhj
 .text._ZN8GSModule20setAutoConnectClientEPKcjNS_8ProtocolE
                0x00008ef4       0x2e libs/GSModule.o
                0x00008ef4                _ZN8GSModule20setAutoConnectClientEPKcjNS_8ProtocolE
 .text._ZN8GSModule6setNcmEbbbNS_7NCMModeE
                0x00008f22       0x68 libs/GSModule.o
                0x00008f22                _ZN8GSModule6setNcmEbbbNS_7NCMModeE
 .text.startup._GLOBAL__sub_I__ZN8GSModule10connectTcpERK9IPAddressj
                0x00008f8a       0x16 libs/GSModule.o
 .text._ZN11GSTcpClient7connectEPKcj
                0x00008fa0        0x6 libs/GSTcpClient.o
                0x00008fa0                _ZN11GSTcpClient7connectEPKcj
 .text._ZN11GSTcpClient9enableTlsEPKc
                0x00008fa6        0xc libs/GSTcpClient.o
                0x00008fa6                _ZN11GSTcpClient9enableTlsEPKc
 .text._ZN11GSTcpClient12sslConnectedEv
                0x00008fb2       0x68 libs/GSTcpClient.o
                0x00008fb2                _ZN11GSTcpClient12sslConnectedEv
 .text._ZN11GSTcpClient7connectE9IPAddressj
                0x0000901a       0x62 libs/GSTcpClient.o
                0x0000901a                _ZN11GSTcpClient7connectE9IPAddressj
 .text.startup._GLOBAL__sub_I__ZN11GSTcpClient7connectE9IPAddressj
                0x0000907c       0x16 libs/GSTcpClient.o
 .text.startup._GLOBAL__sub_I__ZN11GSUdpClient7connectE9IPAddressj
                0x00009092       0x16 libs/GSUdpClient.o
 .text.startup._GLOBAL__sub_I__ZN11GSUdpServer5beginEj
                0x000090a8       0x16 libs/GSUdpServer.o
 .text.j0g      0x000090be       0x4a libs/j0g.o
                0x000090be                j0g
 .text.j0g_safe
                0x00009108       0x7c libs/j0g.o
                0x00009108                j0g_safe
 .text.j0g_val  0x00009184       0xc0 libs/j0g.o
                0x00009184                j0g_val
 .text.j0g_str  0x00009244       0x28 libs/j0g.o
                0x00009244                j0g_str
 .text.js0n     0x0000926c      0x276 libs/js0n.o
                0x0000926c                js0n
 .text.NWK_Init
                0x000094e2       0x40 libs/nwk.o
                0x000094e2                NWK_Init
 .text.NWK_SetAddr
                0x00009522        0xe libs/nwk.o
                0x00009522                NWK_SetAddr
 .text.NWK_SetPanId
                0x00009530        0xe libs/nwk.o
                0x00009530                NWK_SetPanId
 .text.NWK_OpenEndpoint
                0x0000953e       0x12 libs/nwk.o
                0x0000953e                NWK_OpenEndpoint
 .text.NWK_TaskHandler
                0x00009550        0xe libs/nwk.o
                0x00009550                NWK_TaskHandler
 .text.nwkDataReqTxConf
                0x0000955e       0x46 libs/nwkDataReq.o
 .text.nwkDataReqInit
                0x000095a4        0xa libs/nwkDataReq.o
                0x000095a4                nwkDataReqInit
 .text.NWK_DataReq
                0x000095ae       0x42 libs/nwkDataReq.o
                0x000095ae                NWK_DataReq
 .text.nwkDataReqTaskHandler
                0x000095f0      0x196 libs/nwkDataReq.o
                0x000095f0                nwkDataReqTaskHandler
 .text.nwkFrameInit
                0x00009786       0x16 libs/nwkFrame.o
                0x00009786                nwkFrameInit
 .text.nwkFrameAlloc
                0x0000979c       0x6e libs/nwkFrame.o
                0x0000979c                nwkFrameAlloc
 .text.nwkFrameFree
                0x0000980a       0x14 libs/nwkFrame.o
                0x0000980a                nwkFrameFree
 .text.nwkFrameNext
                0x0000981e       0x4a libs/nwkFrame.o
                0x0000981e                nwkFrameNext
 .text.nwkFrameCommandInit
                0x00009868       0x2a libs/nwkFrame.o
                0x00009868                nwkFrameCommandInit
 .text.nwkGroupInit
                0x00009892       0x18 libs/nwkGroup.o
                0x00009892                nwkGroupInit
 .text.NWK_GroupAdd
                0x000098aa       0x48 libs/nwkGroup.o
                0x000098aa                NWK_GroupAdd
 .text.NWK_GroupRemove
                0x000098f2       0x4c libs/nwkGroup.o
                0x000098f2                NWK_GroupRemove
 .text.NWK_GroupIsMember
                0x0000993e       0x34 libs/nwkGroup.o
                0x0000993e                NWK_GroupIsMember
 .text.nwkRouteInit
                0x00009972       0x3e libs/nwkRoute.o
                0x00009972                nwkRouteInit
 .text.NWK_RouteFindEntry
                0x000099b0       0x70 libs/nwkRoute.o
                0x000099b0                NWK_RouteFindEntry
 .text.NWK_RouteNewEntry
                0x00009a20       0x4c libs/nwkRoute.o
                0x00009a20                NWK_RouteNewEntry
 .text.NWK_RouteFreeEntry
                0x00009a6c       0x14 libs/nwkRoute.o
                0x00009a6c                NWK_RouteFreeEntry
 .text.NWK_RouteNextHop
                0x00009a80       0x14 libs/nwkRoute.o
                0x00009a80                NWK_RouteNextHop
 .text.NWK_RouteTable
                0x00009a94        0x6 libs/nwkRoute.o
                0x00009a94                NWK_RouteTable
 .text.nwkRouteUpdateEntry
                0x00009a9a       0x48 libs/nwkRoute.o
                0x00009a9a                nwkRouteUpdateEntry
 .text.nwkRouteRemove
                0x00009ae2        0xa libs/nwkRoute.o
                0x00009ae2                nwkRouteRemove
 .text.nwkRouteFrameReceived
                0x00009aec        0x2 libs/nwkRoute.o
                0x00009aec                nwkRouteFrameReceived
 .text.nwkRouteFrameSent
                0x00009aee       0x84 libs/nwkRoute.o
                0x00009aee                nwkRouteFrameSent
 .text.nwkRoutePrepareTx
                0x00009b72       0x68 libs/nwkRoute.o
                0x00009b72                nwkRoutePrepareTx
 .text.nwkRouteFrame
                0x00009bda       0x9c libs/nwkRoute.o
                0x00009bda                nwkRouteFrame
 .text.nwkRouteErrorReceived
                0x00009c76       0x22 libs/nwkRoute.o
                0x00009c76                nwkRouteErrorReceived
 .text.nwkRouteDiscoveryFindEntry
                0x00009c98       0x6e libs/nwkRouteDiscovery.o
 .text.nwkRouteDiscoveryNewEntry
                0x00009d06       0x6c libs/nwkRouteDiscovery.o
 .text.nwkRouteDiscoveryTimerHandler
                0x00009d72      0x12c libs/nwkRouteDiscovery.o
 .text.nwkRouteDiscoverySendRequest
                0x00009e9e       0x78 libs/nwkRouteDiscovery.o
 .text.nwkRouteDiscoverySendReply
                0x00009f16       0x7e libs/nwkRouteDiscovery.o
 .text.nwkRouteDiscoveryInit
                0x00009f94       0x52 libs/nwkRouteDiscovery.o
                0x00009f94                nwkRouteDiscoveryInit
 .text.nwkRouteDiscoveryRequest
                0x00009fe6       0x6e libs/nwkRouteDiscovery.o
                0x00009fe6                nwkRouteDiscoveryRequest
 .text.nwkRouteDiscoveryRequestReceived
                0x0000a054      0x130 libs/nwkRouteDiscovery.o
                0x0000a054                nwkRouteDiscoveryRequestReceived
 .text.nwkRouteDiscoveryReplyReceived
                0x0000a184       0xb8 libs/nwkRouteDiscovery.o
                0x0000a184                nwkRouteDiscoveryReplyReceived
 .text.nwkRxSeriveDataInd
                0x0000a23c       0x4c libs/nwkRx.o
 .text.nwkRxDuplicateRejectionTimerHandler
                0x0000a288       0x28 libs/nwkRx.o
 .text.nwkRxInit
                0x0000a2b0       0x44 libs/nwkRx.o
                0x0000a2b0                nwkRxInit
 .text.PHY_DataInd
                0x0000a2f4       0x50 libs/nwkRx.o
                0x0000a2f4                PHY_DataInd
 .text.NWK_SetAckControl
                0x0000a344        0x6 libs/nwkRx.o
                0x0000a344                NWK_SetAckControl
 .text.nwkRxDecryptConf
                0x0000a34a       0x14 libs/nwkRx.o
                0x0000a34a                nwkRxDecryptConf
 .text.nwkRxTaskHandler
                0x0000a35e      0x530 libs/nwkRx.o
                0x0000a35e                nwkRxTaskHandler
 .text.nwkSecurityInit
                0x0000a88e        0xe libs/nwkSecurity.o
                0x0000a88e                nwkSecurityInit
 .text.NWK_SetSecurityKey
                0x0000a89c       0x12 libs/nwkSecurity.o
                0x0000a89c                NWK_SetSecurityKey
 .text.nwkSecurityProcess
                0x0000a8ae       0x1e libs/nwkSecurity.o
                0x0000a8ae                nwkSecurityProcess
 .text.SYS_EncryptConf
                0x0000a8cc       0x78 libs/nwkSecurity.o
                0x0000a8cc                SYS_EncryptConf
 .text.nwkSecurityTaskHandler
                0x0000a944      0x1f6 libs/nwkSecurity.o
                0x0000a944                nwkSecurityTaskHandler
 .text.nwkTxDelayTimerHandler
                0x0000ab3a       0x60 libs/nwkTx.o
 .text.nwkTxAckWaitTimerHandler
                0x0000ab9a       0x70 libs/nwkTx.o
 .text.nwkTxInit
                0x0000ac0a       0x5a libs/nwkTx.o
                0x0000ac0a                nwkTxInit
 .text.nwkTxFrame
                0x0000ac64       0xb0 libs/nwkTx.o
                0x0000ac64                nwkTxFrame
 .text.nwkTxBroadcastFrame
                0x0000ad14       0x90 libs/nwkTx.o
                0x0000ad14                nwkTxBroadcastFrame
 .text.nwkTxAckReceived
                0x0000ada4       0x4a libs/nwkTx.o
                0x0000ada4                nwkTxAckReceived
 .text.nwkTxConfirm
                0x0000adee        0xe libs/nwkTx.o
                0x0000adee                nwkTxConfirm
 .text.nwkTxEncryptConf
                0x0000adfc        0x8 libs/nwkTx.o
                0x0000adfc                nwkTxEncryptConf
 .text.PHY_DataConf
                0x0000ae04       0x46 libs/nwkTx.o
                0x0000ae04                PHY_DataConf
 .text.nwkTxTaskHandler
                0x0000ae4a      0x15c libs/nwkTx.o
                0x0000ae4a                nwkTxTaskHandler
 .text.phySetChannel
                0x0000afa6       0x38 libs/phy.o
 .text.phyTrxSetState
                0x0000afde       0x24 libs/phy.o
 .text.phySetRxState
                0x0000b002       0x18 libs/phy.o
 .text.PHY_SetRxState
                0x0000b01a        0x8 libs/phy.o
                0x0000b01a                PHY_SetRxState
 .text.PHY_SetChannel
                0x0000b022        0x8 libs/phy.o
                0x0000b022                PHY_SetChannel
 .text.PHY_SetPanId
                0x0000b02a       0x24 libs/phy.o
                0x0000b02a                PHY_SetPanId
 .text.PHY_SetShortAddr
                0x0000b04e       0x24 libs/phy.o
                0x0000b04e                PHY_SetShortAddr
 .text.PHY_SetTxPower
                0x0000b072       0x10 libs/phy.o
                0x0000b072                PHY_SetTxPower
 .text.PHY_DataReq
                0x0000b082       0x4c libs/phy.o
                0x0000b082                PHY_DataReq
 .text.PHY_RandomReq
                0x0000b0ce       0x76 libs/phy.o
                0x0000b0ce                PHY_RandomReq
 .text.PHY_Init
                0x0000b144       0x34 libs/phy.o
                0x0000b144                PHY_Init
 .text.PHY_EncryptReq
                0x0000b178       0x50 libs/phy.o
                0x0000b178                PHY_EncryptReq
 .text.PHY_TaskHandler
                0x0000b1c8       0xf6 libs/phy.o
                0x0000b1c8                PHY_TaskHandler
 .text.SYS_Init
                0x0000b2be        0xa libs/sys.o
                0x0000b2be                SYS_Init
 .text.SYS_TaskHandler
                0x0000b2c8        0xa libs/sys.o
                0x0000b2c8                SYS_TaskHandler
 .text.SYS_EncryptReq
                0x0000b2d2        0x6 libs/sysEncrypt.o
                0x0000b2d2                SYS_EncryptReq
 .text.placeTimer
                0x0000b2d8       0xc8 libs/sysTimer.o
 .text.SYS_TimerInit
                0x0000b3a0        0xa libs/sysTimer.o
                0x0000b3a0                SYS_TimerInit
 .text.SYS_TimerStop
                0x0000b3aa       0x80 libs/sysTimer.o
                0x0000b3aa                SYS_TimerStop
 .text.SYS_TimerStarted
                0x0000b42a       0x34 libs/sysTimer.o
                0x0000b42a                SYS_TimerStarted
 .text.SYS_TimerStart
                0x0000b45e       0x16 libs/sysTimer.o
                0x0000b45e                SYS_TimerStart
 .text.SYS_TimerTaskHandler
                0x0000b474       0xc6 libs/sysTimer.o
                0x0000b474                SYS_TimerTaskHandler
 .text._ZN4Pbbe12stringLengthEPKNS_6EepromEj
                0x0000b53a       0x44 libs/Pbbe.o
                0x0000b53a                _ZN4Pbbe12stringLengthEPKNS_6EepromEj
 .text._ZN4Pbbe18parseMinimalHeaderEPKNS_6EepromEPNS_13MinimalHeaderE
                0x0000b57e       0x42 libs/Pbbe.o
                0x0000b57e                _ZN4Pbbe18parseMinimalHeaderEPKNS_6EepromEPNS_13MinimalHeaderE
 .text._ZN4Pbbe13extractStringEPKNS_6EepromEjPcj
                0x0000b5c0       0x46 libs/Pbbe.o
                0x0000b5c0                _ZN4Pbbe13extractStringEPKNS_6EepromEjPcj
 .text._ZN4Pbbe12parseHeaderAEPKNS_6EepromE
                0x0000b606       0x8a libs/Pbbe.o
                0x0000b606                _ZN4Pbbe12parseHeaderAEPKNS_6EepromE
 .text._ZN4Pbbe22parseMinimalDescriptorEPKNS_6EepromEjPNS_17MinimalDescriptorE
                0x0000b690       0xcc libs/Pbbe.o
                0x0000b690                _ZN4Pbbe22parseMinimalDescriptorEPKNS_6EepromEjPNS_17MinimalDescriptorE
 .text._ZN4Pbbe20parseDescriptorListAEPKNS_6EepromEPKNS_6HeaderE
                0x0000b75c      0x130 libs/Pbbe.o
                0x0000b75c                _ZN4Pbbe20parseDescriptorListAEPKNS_6EepromEPKNS_6HeaderE
 .text._ZN4Pbbe16parseDescriptorAEPKNS_6EepromEPNS_14DescriptorInfoE
                0x0000b88c      0x218 libs/Pbbe.o
                0x0000b88c                _ZN4Pbbe16parseDescriptorAEPKNS_6EepromEPNS_14DescriptorInfoE
 .text._ZN4Pbbe11writeEepromER4PBBPhPKNS_6EepromE
                0x0000baa4       0x3e libs/Pbbe.o
                0x0000baa4                _ZN4Pbbe11writeEepromER4PBBPhPKNS_6EepromE
 .text._ZN4Pbbe14eepromChecksumEPhj
                0x0000bae2       0x4e libs/Pbbe.o
                0x0000bae2                _ZN4Pbbe14eepromChecksumEPhj
 .text._ZN4Pbbe9getEepromER4PBBPh
                0x0000bb30      0x11c libs/Pbbe.o
                0x0000bb30                _ZN4Pbbe9getEepromER4PBBPh
 .text._ZN4Pbbe12updateEepromEPNS_6EepromEjPKhh
                0x0000bc4c      0x172 libs/Pbbe.o
                0x0000bc4c                _ZN4Pbbe12updateEepromEPNS_6EepromEjPKhh
 .text._ZN4PBBPC2Ev
                0x0000bdbe        0x6 libs/PBBP.o
                0x0000bdbe                _ZN4PBBPC2Ev
                0x0000bdbe                _ZN4PBBPC1Ev
 .text._ZN4PBBP5beginEh
                0x0000bdc4        0xe libs/PBBP.o
                0x0000bdc4                _ZN4PBBP5beginEh
 .text._ZN4PBBP14waitForFreeBusEv
                0x0000bdd2       0x2c libs/PBBP.o
                0x0000bdd2                _ZN4PBBP14waitForFreeBusEv
 .text._ZN4PBBP9sendResetEv
                0x0000bdfe       0x7a libs/PBBP.o
                0x0000bdfe                _ZN4PBBP9sendResetEv
 .text._ZN4PBBP19waitForNextBitStartEv
                0x0000be78       0x94 libs/PBBP.o
                0x0000be78                _ZN4PBBP19waitForNextBitStartEv
 .text._ZN4PBBP7sendBitEb
                0x0000bf0c       0xa0 libs/PBBP.o
                0x0000bf0c                _ZN4PBBP7sendBitEb
 .text._ZN4PBBP10receiveBitEPb
                0x0000bfac       0xcc libs/PBBP.o
                0x0000bfac                _ZN4PBBP10receiveBitEPb
 .text._ZN4PBBP12receiveReadyEv
                0x0000c078       0x50 libs/PBBP.o
                0x0000c078                _ZN4PBBP12receiveReadyEv
 .text._ZN4PBBP10receiveAckEv
                0x0000c0c8       0x72 libs/PBBP.o
                0x0000c0c8                _ZN4PBBP10receiveAckEv
 .text._ZN4PBBP8sendByteEh
                0x0000c13a       0x82 libs/PBBP.o
                0x0000c13a                _ZN4PBBP8sendByteEh
 .text._ZN4PBBP9sendBytesEPKhh
                0x0000c1bc       0x42 libs/PBBP.o
                0x0000c1bc                _ZN4PBBP9sendBytesEPKhh
 .text._ZN4PBBP11sendCommandEhh
                0x0000c1fe       0x48 libs/PBBP.o
                0x0000c1fe                _ZN4PBBP11sendCommandEhh
 .text._ZN4PBBP11writeEepromEhhPKhh
                0x0000c246       0x48 libs/PBBP.o
                0x0000c246                _ZN4PBBP11writeEepromEhhPKhh
 .text._ZN4PBBP11receiveByteEPh
                0x0000c28e       0xa6 libs/PBBP.o
                0x0000c28e                _ZN4PBBP11receiveByteEPh
 .text._ZN4PBBP12receiveBytesEPhh
                0x0000c334       0x46 libs/PBBP.o
                0x0000c334                _ZN4PBBP12receiveBytesEPhh
 .text._ZN4PBBP10readEepromEhhPhh
                0x0000c37a       0x48 libs/PBBP.o
                0x0000c37a                _ZN4PBBP10readEepromEhhPhh
 .text._ZN4PBBP9enumerateEPFvPhE
                0x0000c3c2       0xf8 libs/PBBP.o
                0x0000c3c2                _ZN4PBBP9enumerateEPFvPhE
 .text._ZN4PBBP14printLastErrorER5Print
                0x0000c4ba       0x6a libs/PBBP.o
                0x0000c4ba                _ZN4PBBP14printLastErrorER5Print
 .text._ZN16PinoccioBackpackC2Ev
                0x0000c524        0x2 libs/Backpack.o
                0x0000c524                _ZN16PinoccioBackpackC2Ev
                0x0000c524                _ZN16PinoccioBackpackC1Ev
 .text._ZN16PinoccioBackpackD2Ev
                0x0000c526        0x2 libs/Backpack.o
                0x0000c526                _ZN16PinoccioBackpackD1Ev
                0x0000c526                _ZN16PinoccioBackpackD2Ev
 .text._ZN16PinoccioBackpack5setupEv
                0x0000c528        0x2 libs/Backpack.o
                0x0000c528                _ZN16PinoccioBackpack5setupEv
 .text._ZN16PinoccioBackpack4loopEv
                0x0000c52a        0x2 libs/Backpack.o
                0x0000c52a                _ZN16PinoccioBackpack4loopEv
 .text.startup._GLOBAL__sub_I__ZN16PinoccioBackpackC2Ev
                0x0000c52c       0x16 libs/Backpack.o
 .text._ZN9Backpacks11addBackpackEPh
                0x0000c542       0x84 libs/Backpacks.o
                0x0000c542                _ZN9Backpacks11addBackpackEPh
 .text._ZN9Backpacks14printPbbpErrorEPKc
                0x0000c5c6       0x20 libs/Backpacks.o
                0x0000c5c6                _ZN9Backpacks14printPbbpErrorEPKc
 .text._ZN12BackpackInfo9getEepromEPj
                0x0000c5e6       0x44 libs/Backpacks.o
                0x0000c5e6                _ZN12BackpackInfo9getEepromEPj
 .text._ZN12BackpackInfo9getHeaderEv
                0x0000c62a       0x38 libs/Backpacks.o
                0x0000c62a                _ZN12BackpackInfo9getHeaderEv
 .text._ZN12BackpackInfo10freeHeaderEv
                0x0000c662       0x18 libs/Backpacks.o
                0x0000c662                _ZN12BackpackInfo10freeHeaderEv
 .text._ZN12BackpackInfo18freeAllDescriptorsEv
                0x0000c67a       0x60 libs/Backpacks.o
                0x0000c67a                _ZN12BackpackInfo18freeAllDescriptorsEv
 .text._ZN12BackpackInfo17getAllDescriptorsEv
                0x0000c6da       0x78 libs/Backpacks.o
                0x0000c6da                _ZN12BackpackInfo17getAllDescriptorsEv
 .text._ZN12BackpackInfo11getUsedPinsEv
                0x0000c752      0x15e libs/Backpacks.o
                0x0000c752                _ZN12BackpackInfo11getUsedPinsEv
 .text._ZN9Backpacks14isModelPresentEj
                0x0000c8b0       0x32 libs/Backpacks.o
                0x0000c8b0                _ZN9Backpacks14isModelPresentEj
 .text._ZN9Backpacks14updateUsedPinsEv
                0x0000c8e2       0x56 libs/Backpacks.o
                0x0000c8e2                _ZN9Backpacks14updateUsedPinsEv
 .text._ZN9Backpacks6detectEv
                0x0000c938       0x52 libs/Backpacks.o
                0x0000c938                _ZN9Backpacks6detectEv
 .text._ZN9Backpacks5setupEv
                0x0000c98a       0x16 libs/Backpacks.o
                0x0000c98a                _ZN9Backpacks5setupEv
 .text.startup._GLOBAL__sub_I__ZN9Backpacks13num_backpacksE
                0x0000c9a0        0x6 libs/Backpacks.o
 .text._ZN12WiFiBackpack15onNcmDisconnectEPv
                0x0000c9a6        0x6 libs/WiFiBackpack.o
                0x0000c9a6                _ZN12WiFiBackpack15onNcmDisconnectEPv
 .text._ZL10print_linePKhjPv
                0x0000c9ac       0x2a libs/WiFiBackpack.o
 .text._ZN12WiFiBackpackC2Ev
                0x0000c9d6       0x38 libs/WiFiBackpack.o
                0x0000c9d6                _ZN12WiFiBackpackC2Ev
                0x0000c9d6                _ZN12WiFiBackpackC1Ev
 .text._ZN12WiFiBackpackD2Ev
                0x0000ca0e        0x2 libs/WiFiBackpack.o
                0x0000ca0e                _ZN12WiFiBackpackD2Ev
                0x0000ca0e                _ZN12WiFiBackpackD1Ev
 .text._ZN12WiFiBackpack5setupEv
                0x0000ca10       0x72 libs/WiFiBackpack.o
                0x0000ca10                _ZN12WiFiBackpack5setupEv
 .text._ZN12WiFiBackpack4loopEv
                0x0000ca82       0x34 libs/WiFiBackpack.o
                0x0000ca82                _ZN12WiFiBackpack4loopEv
 .text._ZN12WiFiBackpack10wifiConfigEPKcS1_
                0x0000cab6      0x17e libs/WiFiBackpack.o
                0x0000cab6                _ZN12WiFiBackpack10wifiConfigEPKcS1_
 .text._ZN12WiFiBackpack8wifiDhcpEPKc
                0x0000cc34       0x66 libs/WiFiBackpack.o
                0x0000cc34                _ZN12WiFiBackpack8wifiDhcpEPKc
 .text._ZN12WiFiBackpack10wifiStaticE9IPAddressS0_S0_S0_
                0x0000cc9a       0xb8 libs/WiFiBackpack.o
                0x0000cc9a                _ZN12WiFiBackpack10wifiStaticE9IPAddressS0_S0_S0_
 .text._ZN12WiFiBackpack13autoConnectHqEv
                0x0000cd52       0xae libs/WiFiBackpack.o
                0x0000cd52                _ZN12WiFiBackpack13autoConnectHqEv
 .text._ZN12WiFiBackpack11onAssociateEPv
                0x0000ce00       0xa4 libs/WiFiBackpack.o
                0x0000ce00                _ZN12WiFiBackpack11onAssociateEPv
 .text._ZN12WiFiBackpack12onNcmConnectEPvh
                0x0000cea4       0x4a libs/WiFiBackpack.o
                0x0000cea4                _ZN12WiFiBackpack12onNcmConnectEPvh
 .text._ZN12WiFiBackpack12disassociateEv
                0x0000ceee       0x3e libs/WiFiBackpack.o
                0x0000ceee                _ZN12WiFiBackpack12disassociateEv
 .text._ZN12WiFiBackpack13isAPConnectedEv
                0x0000cf2c       0x20 libs/WiFiBackpack.o
                0x0000cf2c                _ZN12WiFiBackpack13isAPConnectedEv
 .text._ZN12WiFiBackpack13isHQConnectedEv
                0x0000cf4c       0x30 libs/WiFiBackpack.o
                0x0000cf4c                _ZN12WiFiBackpack13isHQConnectedEv
 .text._ZN12WiFiBackpack9dnsLookupER5PrintPKc
                0x0000cf7c        0x4 libs/WiFiBackpack.o
                0x0000cf7c                _ZN12WiFiBackpack9dnsLookupER5PrintPKc
 .text._ZN12WiFiBackpack4pingER5PrintPKc
                0x0000cf80        0x4 libs/WiFiBackpack.o
                0x0000cf80                _ZN12WiFiBackpack4pingER5PrintPKc
 .text._ZN12WiFiBackpack16runDirectCommandER5PrintPKc
                0x0000cf84       0x48 libs/WiFiBackpack.o
                0x0000cf84                _ZN12WiFiBackpack16runDirectCommandER5PrintPKc
 .text._ZN12WiFiBackpack8printAPsER5Print
                0x0000cfcc       0x38 libs/WiFiBackpack.o
                0x0000cfcc                _ZN12WiFiBackpack8printAPsER5Print
 .text._ZN12WiFiBackpack13printProfilesER5Print
                0x0000d004        0x6 libs/WiFiBackpack.o
                0x0000d004                _ZN12WiFiBackpack13printProfilesER5Print
 .text._ZN12WiFiBackpack25printCurrentNetworkStatusER5Print
                0x0000d00a       0x24 libs/WiFiBackpack.o
                0x0000d00a                _ZN12WiFiBackpack25printCurrentNetworkStatusER5Print
 .text._ZN12WiFiBackpack21printFirmwareVersionsER5Print
                0x0000d02e        0x6 libs/WiFiBackpack.o
                0x0000d02e                _ZN12WiFiBackpack21printFirmwareVersionsER5Print
 .text._ZN12WiFiBackpack9goToSleepEv
                0x0000d034        0x4 libs/WiFiBackpack.o
                0x0000d034                _ZN12WiFiBackpack9goToSleepEv
 .text._ZN12WiFiBackpack6wakeUpEv
                0x0000d038        0x4 libs/WiFiBackpack.o
                0x0000d038                _ZN12WiFiBackpack6wakeUpEv
 .text._ZN12WiFiBackpack9printTimeER5Print
                0x0000d03c        0x6 libs/WiFiBackpack.o
                0x0000d03c                _ZN12WiFiBackpack9printTimeER5Print
 .text.startup._GLOBAL__sub_I__ZN12WiFiBackpackC2Ev
                0x0000d042       0x16 libs/WiFiBackpack.o
 .text.keyMap   0x0000d058       0xfe libs/key.o
                0x0000d058                keyMap
 .text.keyGet   0x0000d156       0x1c libs/key.o
                0x0000d156                keyGet
 .text.keyFree  0x0000d172       0x3a libs/key.o
                0x0000d172                keyFree
 .text.keyLoop  0x0000d1ac       0x62 libs/key.o
                0x0000d1ac                keyLoop
 .text.keyLoad  0x0000d20e      0x100 libs/key.o
                0x0000d20e                keyLoad
 .text.keyInit  0x0000d30e       0x3a libs/key.o
                0x0000d30e                keyInit
 .text.HAL_FuelGaugeVoltage
                0x0000d348        0x6 libs/halFuelGauge.o
                0x0000d348                HAL_FuelGaugeVoltage
 .text.HAL_FuelGaugePercent
                0x0000d34e        0x6 libs/halFuelGauge.o
                0x0000d34e                HAL_FuelGaugePercent
 .text.HAL_FuelGaugeConfig
                0x0000d354        0x2 libs/halFuelGauge.o
                0x0000d354                HAL_FuelGaugeConfig
 .text._ZN9HalRgbLed5isOffEv
                0x0000d356       0x20 libs/halRgbLed.o
                0x0000d356                _ZN9HalRgbLed5isOffEv
 .text._ZN9HalRgbLed11setRedValueEi
                0x0000d376       0x2e libs/halRgbLed.o
                0x0000d376                _ZN9HalRgbLed11setRedValueEi
 .text._ZN9HalRgbLed13setGreenValueEi
                0x0000d3a4       0x2e libs/halRgbLed.o
                0x0000d3a4                _ZN9HalRgbLed13setGreenValueEi
 .text._ZN9HalRgbLed12setBlueValueEi
                0x0000d3d2       0x2e libs/halRgbLed.o
                0x0000d3d2                _ZN9HalRgbLed12setBlueValueEi
 .text._ZN9HalRgbLed11getRedValueEv
                0x0000d400        0x8 libs/halRgbLed.o
                0x0000d400                _ZN9HalRgbLed11getRedValueEv
 .text._ZN9HalRgbLed13getGreenValueEv
                0x0000d408        0x8 libs/halRgbLed.o
                0x0000d408                _ZN9HalRgbLed13getGreenValueEv
 .text._ZN9HalRgbLed12getBlueValueEv
                0x0000d410        0x8 libs/halRgbLed.o
                0x0000d410                _ZN9HalRgbLed12getBlueValueEv
 .text._ZN9HalRgbLed9saveTorchEsss
                0x0000d418       0x68 libs/halRgbLed.o
                0x0000d418                _ZN9HalRgbLed9saveTorchEsss
 .text._ZN9HalRgbLed16getRedTorchValueEv
                0x0000d480        0x8 libs/halRgbLed.o
                0x0000d480                _ZN9HalRgbLed16getRedTorchValueEv
 .text._ZN9HalRgbLed18getGreenTorchValueEv
                0x0000d488        0x8 libs/halRgbLed.o
                0x0000d488                _ZN9HalRgbLed18getGreenTorchValueEv
 .text._ZN9HalRgbLed17getBlueTorchValueEv
                0x0000d490        0x8 libs/halRgbLed.o
                0x0000d490                _ZN9HalRgbLed17getBlueTorchValueEv
 .text._ZN9HalRgbLed12triggerEventEv
                0x0000d498       0x94 libs/halRgbLed.o
                0x0000d498                _ZN9HalRgbLed12triggerEventEv
 .text._ZN9HalRgbLed8setColorEsss
                0x0000d52c       0x8e libs/halRgbLed.o
                0x0000d52c                _ZN9HalRgbLed8setColorEsss
 .text._ZN9HalRgbLed7turnOffEv
                0x0000d5ba       0x22 libs/halRgbLed.o
                0x0000d5ba                _ZN9HalRgbLed7turnOffEv
 .text._ZN9HalRgbLedC2Ev
                0x0000d5dc       0x64 libs/halRgbLed.o
                0x0000d5dc                _ZN9HalRgbLedC1Ev
                0x0000d5dc                _ZN9HalRgbLedC2Ev
 .text._ZN9HalRgbLed3redEv
                0x0000d640        0xe libs/halRgbLed.o
                0x0000d640                _ZN9HalRgbLed3redEv
 .text._ZN9HalRgbLed5greenEv
                0x0000d64e        0xe libs/halRgbLed.o
                0x0000d64e                _ZN9HalRgbLed5greenEv
 .text._ZN9HalRgbLed4blueEv
                0x0000d65c        0xe libs/halRgbLed.o
                0x0000d65c                _ZN9HalRgbLed4blueEv
 .text._ZN9HalRgbLed4cyanEv
                0x0000d66a        0xe libs/halRgbLed.o
                0x0000d66a                _ZN9HalRgbLed4cyanEv
 .text._ZN9HalRgbLed6purpleEv
                0x0000d678        0xe libs/halRgbLed.o
                0x0000d678                _ZN9HalRgbLed6purpleEv
 .text._ZN9HalRgbLed7magentaEv
                0x0000d686        0xe libs/halRgbLed.o
                0x0000d686                _ZN9HalRgbLed7magentaEv
 .text._ZN9HalRgbLed6yellowEv
                0x0000d694        0xe libs/halRgbLed.o
                0x0000d694                _ZN9HalRgbLed6yellowEv
 .text._ZN9HalRgbLed6orangeEv
                0x0000d6a2        0xe libs/halRgbLed.o
                0x0000d6a2                _ZN9HalRgbLed6orangeEv
 .text._ZN9HalRgbLed5whiteEv
                0x0000d6b0        0xe libs/halRgbLed.o
                0x0000d6b0                _ZN9HalRgbLed5whiteEv
 .text._ZN9HalRgbLed10blinkColorEsssjb
                0x0000d6be       0x5c libs/halRgbLed.o
                0x0000d6be                _ZN9HalRgbLed10blinkColorEsssjb
 .text._ZN9HalRgbLed8blinkRedEjb
                0x0000d71a       0x20 libs/halRgbLed.o
                0x0000d71a                _ZN9HalRgbLed8blinkRedEjb
 .text._ZN9HalRgbLed10blinkGreenEjb
                0x0000d73a       0x20 libs/halRgbLed.o
                0x0000d73a                _ZN9HalRgbLed10blinkGreenEjb
 .text._ZN9HalRgbLed9blinkBlueEjb
                0x0000d75a       0x20 libs/halRgbLed.o
                0x0000d75a                _ZN9HalRgbLed9blinkBlueEjb
 .text._ZN9HalRgbLed9blinkCyanEjb
                0x0000d77a       0x20 libs/halRgbLed.o
                0x0000d77a                _ZN9HalRgbLed9blinkCyanEjb
 .text._ZN9HalRgbLed11blinkPurpleEjb
                0x0000d79a       0x20 libs/halRgbLed.o
                0x0000d79a                _ZN9HalRgbLed11blinkPurpleEjb
 .text._ZN9HalRgbLed12blinkMagentaEjb
                0x0000d7ba       0x20 libs/halRgbLed.o
                0x0000d7ba                _ZN9HalRgbLed12blinkMagentaEjb
 .text._ZN9HalRgbLed11blinkYellowEjb
                0x0000d7da       0x20 libs/halRgbLed.o
                0x0000d7da                _ZN9HalRgbLed11blinkYellowEjb
 .text._ZN9HalRgbLed11blinkOrangeEjb
                0x0000d7fa       0x20 libs/halRgbLed.o
                0x0000d7fa                _ZN9HalRgbLed11blinkOrangeEjb
 .text._ZN9HalRgbLed10blinkWhiteEjb
                0x0000d81a       0x20 libs/halRgbLed.o
                0x0000d81a                _ZN9HalRgbLed10blinkWhiteEjb
 .text._ZN9HalRgbLed10blinkTorchEjb
                0x0000d83a       0x22 libs/halRgbLed.o
                0x0000d83a                _ZN9HalRgbLed10blinkTorchEjb
 .text._ZN9HalRgbLed18setLEDToBlinkValueEv
                0x0000d85c       0x10 libs/halRgbLed.o
                0x0000d85c                _ZN9HalRgbLed18setLEDToBlinkValueEv
 .text._ZL26halRgbLedBlinkTimerHandlerP11SYS_Timer_t
                0x0000d86c       0x4c libs/halRgbLed.o
 .text._ZN9HalRgbLed8setTorchEv
                0x0000d8b8       0x10 libs/halRgbLed.o
                0x0000d8b8                _ZN9HalRgbLed8setTorchEv
 .text.startup._GLOBAL__sub_I_RgbLed
                0x0000d8c8       0x1a libs/halRgbLed.o
 .text.HAL_MeasureTemperature
                0x0000d8e2       0x86 libs/halTemperature.o
                0x0000d8e2                HAL_MeasureTemperature
 .text._ZN13PinoccioClassC2Ev
                0x0000d968        0x8 libs/Pinoccio.o
                0x0000d968                _ZN13PinoccioClassC1Ev
                0x0000d968                _ZN13PinoccioClassC2Ev
 .text._ZN13PinoccioClassD2Ev
                0x0000d970        0x2 libs/Pinoccio.o
                0x0000d970                _ZN13PinoccioClassD2Ev
                0x0000d970                _ZN13PinoccioClassD1Ev
 .text._ZN13PinoccioClass4loopEv
                0x0000d972        0x4 libs/Pinoccio.o
                0x0000d972                _ZN13PinoccioClass4loopEv
 .text._ZN13PinoccioClass17getLastResetCauseEv
                0x0000d976       0x22 libs/Pinoccio.o
                0x0000d976                _ZN13PinoccioClass17getLastResetCauseEv
 .text._ZN13PinoccioClass14getTemperatureEv
                0x0000d998        0xe libs/Pinoccio.o
                0x0000d998                _ZN13PinoccioClass14getTemperatureEv
 .text._ZN13PinoccioClass10setHQTokenEPKc
                0x0000d9a6       0x2e libs/Pinoccio.o
                0x0000d9a6                _ZN13PinoccioClass10setHQTokenEPKc
 .text._ZN13PinoccioClass10getHQTokenEPc
                0x0000d9d4       0x2e libs/Pinoccio.o
                0x0000d9d4                _ZN13PinoccioClass10getHQTokenEPc
 .text._ZN13PinoccioClass12resetHQTokenEv
                0x0000da02       0x20 libs/Pinoccio.o
                0x0000da02                _ZN13PinoccioClass12resetHQTokenEv
 .text._ZN13PinoccioClass10setOTAFlagEv
                0x0000da22        0xa libs/Pinoccio.o
                0x0000da22                _ZN13PinoccioClass10setOTAFlagEv
 .text._ZN13PinoccioClass11getHwSerialEv
                0x0000da2c        0x8 libs/Pinoccio.o
                0x0000da2c                _ZN13PinoccioClass11getHwSerialEv
 .text._ZN13PinoccioClass11getHwFamilyEv
                0x0000da34        0x8 libs/Pinoccio.o
                0x0000da34                _ZN13PinoccioClass11getHwFamilyEv
 .text._ZN13PinoccioClass12getHwVersionEv
                0x0000da3c        0x8 libs/Pinoccio.o
                0x0000da3c                _ZN13PinoccioClass12getHwVersionEv
 .text._ZN13PinoccioClass16getEEPROMVersionEv
                0x0000da44        0x8 libs/Pinoccio.o
                0x0000da44                _ZN13PinoccioClass16getEEPROMVersionEv
 .text._ZN13PinoccioClass12meshSetPowerEh
                0x0000da4c       0x30 libs/Pinoccio.o
                0x0000da4c                _ZN13PinoccioClass12meshSetPowerEh
 .text._ZN13PinoccioClass15meshSetDataRateEh
                0x0000da7c       0x1c libs/Pinoccio.o
                0x0000da7c                _ZN13PinoccioClass15meshSetDataRateEh
 .text._ZN13PinoccioClass12meshSetRadioEjjh
                0x0000da98       0x74 libs/Pinoccio.o
                0x0000da98                _ZN13PinoccioClass12meshSetRadioEjjh
 .text._ZN13PinoccioClass18meshSetSecurityKeyEPKh
                0x0000db0c       0x54 libs/Pinoccio.o
                0x0000db0c                _ZN13PinoccioClass18meshSetSecurityKeyEPKh
 .text._ZN13PinoccioClass22loadSettingsFromEepromEv
                0x0000db60      0x126 libs/Pinoccio.o
                0x0000db60                _ZN13PinoccioClass22loadSettingsFromEepromEv
 .text._ZN13PinoccioClass5setupEPKcS1_l
                0x0000dc86       0x3e libs/Pinoccio.o
                0x0000dc86                _ZN13PinoccioClass5setupEPKcS1_l
 .text._ZN13PinoccioClass18meshGetSecurityKeyEPc
                0x0000dcc4       0x2e libs/Pinoccio.o
                0x0000dcc4                _ZN13PinoccioClass18meshGetSecurityKeyEPc
 .text._ZN13PinoccioClass20meshResetSecurityKeyEv
                0x0000dcf2       0x40 libs/Pinoccio.o
                0x0000dcf2                _ZN13PinoccioClass20meshResetSecurityKeyEv
 .text._ZN13PinoccioClass10meshListenEhPFbP13NWK_DataInd_tE
                0x0000dd32        0x8 libs/Pinoccio.o
                0x0000dd32                _ZN13PinoccioClass10meshListenEhPFbP13NWK_DataInd_tE
 .text._ZN13PinoccioClass13meshJoinGroupEj
                0x0000dd3a       0x20 libs/Pinoccio.o
                0x0000dd3a                _ZN13PinoccioClass13meshJoinGroupEj
 .text._ZN13PinoccioClass14meshLeaveGroupEj
                0x0000dd5a       0x20 libs/Pinoccio.o
                0x0000dd5a                _ZN13PinoccioClass14meshLeaveGroupEj
 .text._ZN13PinoccioClass13meshIsInGroupEj
                0x0000dd7a        0x6 libs/Pinoccio.o
                0x0000dd7a                _ZN13PinoccioClass13meshIsInGroupEj
 .text._ZN13PinoccioClass10getAddressEv
                0x0000dd80        0x8 libs/Pinoccio.o
                0x0000dd80                _ZN13PinoccioClass10getAddressEv
 .text._ZN13PinoccioClass8getPanIdEv
                0x0000dd88        0x8 libs/Pinoccio.o
                0x0000dd88                _ZN13PinoccioClass8getPanIdEv
 .text._ZN13PinoccioClass10getChannelEv
                0x0000dd90        0x6 libs/Pinoccio.o
                0x0000dd90                _ZN13PinoccioClass10getChannelEv
 .text._ZN13PinoccioClass13getSketchNameEv
                0x0000dd96        0x8 libs/Pinoccio.o
                0x0000dd96                _ZN13PinoccioClass13getSketchNameEv
 .text._ZN13PinoccioClass17getSketchRevisionEv
                0x0000dd9e        0x8 libs/Pinoccio.o
                0x0000dd9e                _ZN13PinoccioClass17getSketchRevisionEv
 .text._ZN13PinoccioClass14getSketchBuildEv
                0x0000dda6        0xc libs/Pinoccio.o
                0x0000dda6                _ZN13PinoccioClass14getSketchBuildEv
 .text._ZN13PinoccioClass12getTxPowerDbEv
                0x0000ddb2       0x20 libs/Pinoccio.o
                0x0000ddb2                _ZN13PinoccioClass12getTxPowerDbEv
 .text._ZN13PinoccioClass15getDataRatekbpsEv
                0x0000ddd2       0x20 libs/Pinoccio.o
                0x0000ddd2                _ZN13PinoccioClass15getDataRatekbpsEv
 .text._ZL38scoutPeripheralStateChangeTimerHandlerP11SYS_Timer_t
                0x0000ddf2      0x220 libs/Scout.o
 .text._ZN13PinoccioScoutC2Ev
                0x0000e012       0xb2 libs/Scout.o
                0x0000e012                _ZN13PinoccioScoutC1Ev
                0x0000e012                _ZN13PinoccioScoutC2Ev
 .text._ZN13PinoccioScoutD2Ev
                0x0000e0c4       0x1e libs/Scout.o
                0x0000e0c4                _ZN13PinoccioScoutD2Ev
                0x0000e0c4                _ZN13PinoccioScoutD1Ev
 .text._ZN13PinoccioScout4loopEv
                0x0000e0e2       0x3a libs/Scout.o
                0x0000e0e2                _ZN13PinoccioScout4loopEv
 .text._ZN13PinoccioScout17isBatteryChargingEv
                0x0000e11c        0xa libs/Scout.o
                0x0000e11c                _ZN13PinoccioScout17isBatteryChargingEv
 .text._ZN13PinoccioScout20getBatteryPercentageEv
                0x0000e126        0xc libs/Scout.o
                0x0000e126                _ZN13PinoccioScout20getBatteryPercentageEv
 .text._ZN13PinoccioScout17getBatteryVoltageEv
                0x0000e132        0xc libs/Scout.o
                0x0000e132                _ZN13PinoccioScout17getBatteryVoltageEv
 .text._ZN13PinoccioScout17enableBackpackVccEv
                0x0000e13e       0x12 libs/Scout.o
                0x0000e13e                _ZN13PinoccioScout17enableBackpackVccEv
 .text._ZN13PinoccioScout18disableBackpackVccEv
                0x0000e150       0x10 libs/Scout.o
                0x0000e150                _ZN13PinoccioScout18disableBackpackVccEv
 .text._ZN13PinoccioScout20isBackpackVccEnabledEv
                0x0000e160        0xa libs/Scout.o
                0x0000e160                _ZN13PinoccioScout20isBackpackVccEnabledEv
 .text._ZN13PinoccioScout11isLeadScoutEv
                0x0000e16a        0x8 libs/Scout.o
                0x0000e16a                _ZN13PinoccioScout11isLeadScoutEv
 .text._ZN13PinoccioScout12factoryResetEv
                0x0000e172       0x12 libs/Scout.o
                0x0000e172                _ZN13PinoccioScout12factoryResetEv
 .text._ZN13PinoccioScout29startDigitalStateChangeEventsEv
                0x0000e184        0x8 libs/Scout.o
                0x0000e184                _ZN13PinoccioScout29startDigitalStateChangeEventsEv
 .text._ZN13PinoccioScout28stopDigitalStateChangeEventsEv
                0x0000e18c        0x8 libs/Scout.o
                0x0000e18c                _ZN13PinoccioScout28stopDigitalStateChangeEventsEv
 .text._ZN13PinoccioScout28startAnalogStateChangeEventsEv
                0x0000e194        0x8 libs/Scout.o
                0x0000e194                _ZN13PinoccioScout28startAnalogStateChangeEventsEv
 .text._ZN13PinoccioScout27stopAnalogStateChangeEventsEv
                0x0000e19c        0x8 libs/Scout.o
                0x0000e19c                _ZN13PinoccioScout27stopAnalogStateChangeEventsEv
 .text._ZN13PinoccioScout32startPeripheralStateChangeEventsEv
                0x0000e1a4        0x8 libs/Scout.o
                0x0000e1a4                _ZN13PinoccioScout32startPeripheralStateChangeEventsEv
 .text._ZN13PinoccioScout31stopPeripheralStateChangeEventsEv
                0x0000e1ac        0x8 libs/Scout.o
                0x0000e1ac                _ZN13PinoccioScout31stopPeripheralStateChangeEventsEv
 .text._ZN13PinoccioScout24setStateChangeEventCycleEmmm
                0x0000e1b4       0xc0 libs/Scout.o
                0x0000e1b4                _ZN13PinoccioScout24setStateChangeEventCycleEmmm
 .text._ZN13PinoccioScout10getPinModeEh
                0x0000e274       0x26 libs/Scout.o
                0x0000e274                _ZN13PinoccioScout10getPinModeEh
 .text._ZN13PinoccioScout12isDigitalPinEh
                0x0000e29a        0xc libs/Scout.o
                0x0000e29a                _ZN13PinoccioScout12isDigitalPinEh
 .text._ZN13PinoccioScout11isAnalogPinEh
                0x0000e2a6        0xc libs/Scout.o
                0x0000e2a6                _ZN13PinoccioScout11isAnalogPinEh
 .text._ZN13PinoccioScout7pinReadEh
                0x0000e2b2       0x3e libs/Scout.o
                0x0000e2b2                _ZN13PinoccioScout7pinReadEh
 .text._ZN13PinoccioScout14getPinFromNameEPKc
                0x0000e2f0       0x36 libs/Scout.o
                0x0000e2f0                _ZN13PinoccioScout14getPinFromNameEPKc
 .text._ZN13PinoccioScout13isPinReservedEh
                0x0000e326       0x4c libs/Scout.o
                0x0000e326                _ZN13PinoccioScout13isPinReservedEh
 .text._ZN13PinoccioScout18getRegisterPinModeEh
                0x0000e372       0xe6 libs/Scout.o
                0x0000e372                _ZN13PinoccioScout18getRegisterPinModeEh
 .text._ZL34scoutAnalogStateChangeTimerHandlerP11SYS_Timer_t
                0x0000e458      0x126 libs/Scout.o
 .text._ZL35scoutDigitalStateChangeTimerHandlerP11SYS_Timer_t
                0x0000e57e      0x114 libs/Scout.o
 .text._ZN13PinoccioScout9makeInputEhb
                0x0000e692       0xac libs/Scout.o
                0x0000e692                _ZN13PinoccioScout9makeInputEhb
 .text._ZN13PinoccioScout10makeOutputEh
                0x0000e73e       0x7e libs/Scout.o
                0x0000e73e                _ZN13PinoccioScout10makeOutputEh
 .text._ZN13PinoccioScout12makeDisabledEh
                0x0000e7bc       0x6e libs/Scout.o
                0x0000e7bc                _ZN13PinoccioScout12makeDisabledEh
 .text._ZN13PinoccioScout9saveStateEv
                0x0000e82a      0x114 libs/Scout.o
                0x0000e82a                _ZN13PinoccioScout9saveStateEv
 .text._ZN13PinoccioScout5setupEPKcS1_l
                0x0000e93e       0x8c libs/Scout.o
                0x0000e93e                _ZN13PinoccioScout5setupEPKcS1_l
 .text._ZN13PinoccioScout7setModeEhh
                0x0000e9ca       0x80 libs/Scout.o
                0x0000e9ca                _ZN13PinoccioScout7setModeEhh
 .text._ZN13PinoccioScout8pinWriteEhh
                0x0000ea4a       0x74 libs/Scout.o
                0x0000ea4a                _ZN13PinoccioScout8pinWriteEhh
 .text.startup._GLOBAL__sub_I_Scout
                0x0000eabe       0x1a libs/Scout.o
 .text.exit._GLOBAL__sub_D_Scout
                0x0000ead8        0x6 libs/Scout.o
 .text._Z13printToStringIXadL_Z18fieldCommandOutputEEEvh
                0x0000eade        0xa libs/ScoutHandler.o
                0x0000eade                _Z13printToStringIXadL_Z18fieldCommandOutputEEEvh
 .text._Z13printToStringIXadL_Z17leadCommandOutputEEEvh
                0x0000eae8        0xa libs/ScoutHandler.o
                0x0000eae8                _Z13printToStringIXadL_Z17leadCommandOutputEEEvh
 .text._ZL16fieldAnswerChunkv
                0x0000eaf2       0xc0 libs/ScoutHandler.o
 .text._ZL16leadCommandChunkv
                0x0000ebb2       0xc0 libs/ScoutHandler.o
 .text._ZL23fieldAnswerChunkConfirmP13NWK_DataReq_t
                0x0000ec72       0xcc libs/ScoutHandler.o
 .text._ZL10leadSignalRK6String
                0x0000ed3e       0x82 libs/ScoutHandler.o
 .text._ZL11leadAnswersP13NWK_DataInd_t
                0x0000edc0      0x14c libs/ScoutHandler.o
 .text._ZL13fieldCommandsP13NWK_DataInd_t
                0x0000ef0c      0x16e libs/ScoutHandler.o
 .text._Z41__static_initialization_and_destruction_0ii.part.6
                0x0000f07a       0x28 libs/ScoutHandler.o
 .text._ZN20PinoccioScoutHandlerC2Ev
                0x0000f0a2        0x2 libs/ScoutHandler.o
                0x0000f0a2                _ZN20PinoccioScoutHandlerC2Ev
                0x0000f0a2                _ZN20PinoccioScoutHandlerC1Ev
 .text._ZN20PinoccioScoutHandlerD2Ev
                0x0000f0a4        0x2 libs/ScoutHandler.o
                0x0000f0a4                _ZN20PinoccioScoutHandlerD1Ev
                0x0000f0a4                _ZN20PinoccioScoutHandlerD2Ev
 .text._ZN20PinoccioScoutHandler5setupEv
                0x0000f0a6       0x8c libs/ScoutHandler.o
                0x0000f0a6                _ZN20PinoccioScoutHandler5setupEv
 .text._ZN20PinoccioScoutHandler10setVerboseEb
                0x0000f132        0x6 libs/ScoutHandler.o
                0x0000f132                _ZN20PinoccioScoutHandler10setVerboseEb
 .text._Z13announceQSendv
                0x0000f138       0x78 libs/ScoutHandler.o
                0x0000f138                _Z13announceQSendv
 .text._ZL15announceConfirmP13NWK_DataReq_t
                0x0000f1b0       0x64 libs/ScoutHandler.o
 .text._Z11report2jsonRK8ConstBuf
                0x0000f214      0x26c libs/ScoutHandler.o
                0x0000f214                _Z11report2jsonRK8ConstBuf
 .text._ZL20leadAnnouncementSendjjRK8ConstBuf
                0x0000f480       0xec libs/ScoutHandler.o
 .text._ZL18fieldAnnouncementsP13NWK_DataInd_t
                0x0000f56c      0x1ee libs/ScoutHandler.o
 .text._ZN20PinoccioScoutHandler8announceEjRK6String
                0x0000f75a      0x124 libs/ScoutHandler.o
                0x0000f75a                _ZN20PinoccioScoutHandler8announceEjRK6String
 .text._ZN20PinoccioScoutHandler6reportERK6String
                0x0000f87e       0x56 libs/ScoutHandler.o
                0x0000f87e                _ZN20PinoccioScoutHandler6reportERK6String
 .text._Z13leadHQConnectv
                0x0000f8d4       0xb4 libs/ScoutHandler.o
                0x0000f8d4                _Z13leadHQConnectv
 .text._Z16leadCommandErroriiPKc
                0x0000f988       0x96 libs/ScoutHandler.o
                0x0000f988                _Z16leadCommandErroriiPKc
 .text._ZN20PinoccioScoutHandler4loopEv
                0x0000fa1e      0x34a libs/ScoutHandler.o
                0x0000fa1e                _ZN20PinoccioScoutHandler4loopEv
 .text._ZL23leadCommandChunkConfirmP13NWK_DataReq_t
                0x0000fd68       0xe6 libs/ScoutHandler.o
 .text.startup._GLOBAL__sub_I_fieldCommandOutput
                0x0000fe4e       0x64 libs/ScoutHandler.o
 .text.exit._GLOBAL__sub_D_fieldCommandOutput
                0x0000feb2        0x2 libs/ScoutHandler.o
 .text._ZL9goToSleepv
                0x0000feb4        0xa libs/Shell.o
 .text._ZL10meshSignalv
                0x0000febe       0x18 libs/Shell.o
 .text._ZL8meshLossv
                0x0000fed6       0x12 libs/Shell.o
 .text._ZL12pinConstHighv
                0x0000fee8        0xa libs/Shell.o
 .text._ZL11pinConstLowv
                0x0000fef2        0x8 libs/Shell.o
 .text._ZL13pinConstInputv
                0x0000fefa        0x8 libs/Shell.o
 .text._ZL14pinConstOutputv
                0x0000ff02        0xa libs/Shell.o
 .text._ZL19pinConstInputPullupv
                0x0000ff0c        0xa libs/Shell.o
 .text._ZL4bootv
                0x0000ff16       0x1a libs/Shell.o
 .text._ZL11wifiVerbosev
                0x0000ff30        0xa libs/Shell.o
 .text._ZL16isScoutLeadScoutv
                0x0000ff3a       0x12 libs/Shell.o
 .text._ZL14receiveMessageP13NWK_DataInd_t
                0x0000ff4c      0x24a libs/Shell.o
 .text._ZL9ledGetHexv
                0x00010196       0xa0 libs/Shell.o
 .text._ZL11ledReportHQv
                0x00010236      0x150 libs/Shell.o
 .text._ZL15ledEventHandlerhhh
                0x00010386       0x34 libs/Shell.o
 .text._ZL12tempReportHQv
                0x000103ba      0x15c libs/Shell.o
 .text._ZL17temperatureReportv
                0x00010516       0x3c libs/Shell.o
 .text._ZL14getTemperaturev
                0x00010552       0x48 libs/Shell.o
 .text._ZL17isBatteryChargingv
                0x0001059a       0x12 libs/Shell.o
 .text._ZL17getBatteryVoltagev
                0x000105ac       0x14 libs/Shell.o
 .text._ZL20getBatteryPercentagev
                0x000105c0       0x14 libs/Shell.o
 .text._ZL13powerReportHQv
                0x000105d4      0x17a libs/Shell.o
 .text._ZL17analogPinReportHQv
                0x0001074e      0x248 libs/Shell.o
 .text._ZL21analogPinEventHandlerhia
                0x00010996      0x1dc libs/Shell.o
 .text._ZL18digitalPinReportHQv
                0x00010b72      0x23a libs/Shell.o
 .text._ZL22digitalPinEventHandlerhaa
                0x00010dac      0x220 libs/Shell.o
 .text._ZL9wifiStatsv
                0x00010fcc       0x6e libs/Shell.o
 .text._ZL15analogPinReportv
                0x0001103a       0x44 libs/Shell.o
 .text._ZL16digitalPinReportv
                0x0001107e       0x44 libs/Shell.o
 .text._ZL9ledReportv
                0x000110c2       0x44 libs/Shell.o
 .text._ZL11powerReportv
                0x00011106       0x44 libs/Shell.o
 .text._ZL16wifiDisassociatev
                0x0001114a       0x12 libs/Shell.o
 .text._ZL15wifiReassociatev
                0x0001115c       0x12 libs/Shell.o
 .text._ZL10wifiStaticv
                0x0001116e      0x188 libs/Shell.o
 .text._ZL15setEventVerbosev
                0x000112f6       0x26 libs/Shell.o
 .text._ZL11meshVerbosev
                0x0001131c       0x26 libs/Shell.o
 .text._ZL10wifiReportv
                0x00011342      0x12a libs/Shell.o
 .text._ZL9keyNumberv
                0x0001146c       0x2e libs/Shell.o
 .text._ZL8keyPrintv
                0x0001149a       0x2c libs/Shell.o
 .text._ZL13setEventCyclev
                0x000114c6       0x6e libs/Shell.o
 .text._ZL21stopStateChangeEventsv
                0x00011534       0x22 libs/Shell.o
 .text._ZL22startStateChangeEventsv
                0x00011556       0x22 libs/Shell.o
 .text._ZL9hqVerbosev
                0x00011578       0x2c libs/Shell.o
 .text._ZL10allVerbosev
                0x000115a4       0x64 libs/Shell.o
 .text._ZL10getHQTokenv
                0x00011608       0x58 libs/Shell.o
 .text._ZL10setHQTokenv
                0x00011660       0x1e libs/Shell.o
 .text._ZL7otaBootv
                0x0001167e       0x22 libs/Shell.o
 .text._ZL12meshResetKeyv
                0x000116a0       0x12 libs/Shell.o
 .text._ZL10meshConfigv
                0x000116b2       0x8a libs/Shell.o
 .text._ZL9scoutFreev
                0x0001173c       0x10 libs/Shell.o
 .text._ZL17delayTimerHandlerP11SYS_Timer_t
                0x0001174c       0x24 libs/Shell.o
 .text._ZL13scoutReportHQv
                0x00011770      0x230 libs/Shell.o
 .text._ZL11scoutReportv
                0x000119a0       0x44 libs/Shell.o
 .text._ZL11sendConfirmP13NWK_DataReq_t
                0x000119e4      0x192 libs/Shell.o
 .text._ZL14backpackDetailv
                0x00011b76      0x1d8 libs/Shell.o
 .text._ZL16backpackReportHQv
                0x00011d4e       0xb4 libs/Shell.o
 .text._ZL14backpackReportv
                0x00011e02       0x44 libs/Shell.o
 .text._ZL12ledSaveTorchv
                0x00011e46       0x74 libs/Shell.o
 .text._ZL8ledIsOffv
                0x00011eba       0x12 libs/Shell.o
 .text._ZL9ledSetRgbv
                0x00011ecc       0x74 libs/Shell.o
 .text._ZL8ledBlinkv
                0x00011f40      0x180 libs/Shell.o
 .text._ZL6ledOffv
                0x000120c0       0x12 libs/Shell.o
 .text._ZL15getRandomNumberv
                0x000120d2        0xe libs/Shell.o
 .text._ZL17getLastResetCausev
                0x000120e0       0x9e libs/Shell.o
 .text._ZL11meshRoutingv
                0x0001217e      0x1c2 libs/Shell.o
 .text._ZL12meshReportHQv
                0x00012340      0x204 libs/Shell.o
 .text._ZL10meshReportv
                0x00012544       0x44 libs/Shell.o
 .text._ZL13meshIsInGroupv
                0x00012588       0x1e libs/Shell.o
 .text._ZL14meshLeaveGroupv
                0x000125a6       0x1e libs/Shell.o
 .text._ZL13meshJoinGroupv
                0x000125c4       0x1e libs/Shell.o
 .text._ZL10meshGetKeyv
                0x000125e2       0x58 libs/Shell.o
 .text._ZL10meshSetKeyv
                0x0001263a       0x1e libs/Shell.o
 .text._ZL15meshSetDataRatev
                0x00012658       0x1e libs/Shell.o
 .text._ZL12meshSetPowerv
                0x00012676       0x1e libs/Shell.o
 .text._ZL18disableBackpackVccv
                0x00012694       0x12 libs/Shell.o
 .text._ZL17enableBackpackVccv
                0x000126a6       0x12 libs/Shell.o
 .text._ZL14pinoccioBannerv
                0x000126b8      0x160 libs/Shell.o
 .text._ZL10wifiWakeupv
                0x00012818       0x4e libs/Shell.o
 .text._ZL9wifiSleepv
                0x00012866       0x4e libs/Shell.o
 .text._ZL11wifiGetTimev
                0x000128b4       0x52 libs/Shell.o
 .text._ZL13wifiDNSLookupv
                0x00012906       0x60 libs/Shell.o
 .text._ZL8wifiPingv
                0x00012966       0x60 libs/Shell.o
 .text._ZL11wifiCommandv
                0x000129c6       0x60 libs/Shell.o
 .text._ZL8wifiDhcpv
                0x00012a26       0x74 libs/Shell.o
 .text._ZL10wifiConfigv
                0x00012a9a       0x7c libs/Shell.o
 .text._ZL8wifiListv
                0x00012b16       0x5a libs/Shell.o
 .text._ZL10wifiStatusv
                0x00012b70       0x5a libs/Shell.o
 .text._ZL6keyMapv
                0x00012bca       0x94 libs/Shell.o
 .text._ZL7keySavev
                0x00012c5e       0xc0 libs/Shell.o
 .text._ZL10scoutDelayv
                0x00012d1e       0xd0 libs/Shell.o
 .text._ZL8ledTorchv
                0x00012dee       0x8a libs/Shell.o
 .text._ZL8ledWhitev
                0x00012e78       0x8a libs/Shell.o
 .text._ZL9ledOrangev
                0x00012f02       0x8a libs/Shell.o
 .text._ZL9ledYellowv
                0x00012f8c       0x8a libs/Shell.o
 .text._ZL10ledMagentav
                0x00013016       0x8a libs/Shell.o
 .text._ZL9ledPurplev
                0x000130a0       0x8a libs/Shell.o
 .text._ZL7ledCyanv
                0x0001312a       0x8a libs/Shell.o
 .text._ZL7ledBluev
                0x000131b4       0x8a libs/Shell.o
 .text._ZL8ledGreenv
                0x0001323e       0x8a libs/Shell.o
 .text._ZL6ledRedv
                0x000132c8       0x8a libs/Shell.o
 .text._Z41__static_initialization_and_destruction_0ii.part.28
                0x00013352       0x1c libs/Shell.o
 .text._ZL9daisyWipev
                0x0001336e      0x1a4 libs/Shell.o
 .text._ZL23temperatureEventHandlerh
                0x00013512       0xb8 libs/Shell.o
 .text._ZL27batteryChargingEventHandlerh
                0x000135ca       0xb8 libs/Shell.o
 .text._ZL26batteryVoltageEventHandlerh
                0x00013682       0xb8 libs/Shell.o
 .text._ZL29batteryPercentageEventHandlerh
                0x0001373a       0xb8 libs/Shell.o
 .text._ZL14printHexBufferR5PrintPKhjPKc.constprop.40
                0x000137f2       0x70 libs/Shell.o
 .text._ZL12backpackListv
                0x00013862      0x11e libs/Shell.o
 .text._ZL14backpackEepromv
                0x00013980       0xf2 libs/Shell.o
 .text._ZL13getPinFromArgi.constprop.41
                0x00013a72       0x76 libs/Shell.o
 .text._ZL12pinMakeInputv
                0x00013ae8       0xe0 libs/Shell.o
 .text._ZL13pinMakeOutputv
                0x00013bc8       0xae libs/Shell.o
 .text._ZL10pinDisablev
                0x00013c76       0xae libs/Shell.o
 .text._ZL10pinSetModev
                0x00013d24       0xbc libs/Shell.o
 .text._ZL8pinWritev
                0x00013de0       0xce libs/Shell.o
 .text._ZL7pinSavev
                0x00013eae      0x1d0 libs/Shell.o
 .text._ZL7pinReadv
                0x0001407e       0x58 libs/Shell.o
 .text._ZL14uptimeReportHQv
                0x000140d6      0x190 libs/Shell.o
 .text._ZL12uptimeReportv
                0x00014266       0x48 libs/Shell.o
 .text._ZN13PinoccioShell11allReportHQEv
                0x000142ae       0xb4 libs/Shell.o
                0x000142ae                _ZN13PinoccioShell11allReportHQEv
 .text._ZL9allReportv
                0x00014362       0x48 libs/Shell.o
 .text._ZN13PinoccioShell8parseHexEc
                0x000143aa       0x2e libs/Shell.o
                0x000143aa                _ZN13PinoccioShell8parseHexEc
 .text._ZN13PinoccioShell8parseHexEPKcjPh
                0x000143d8       0xac libs/Shell.o
                0x000143d8                _ZN13PinoccioShell8parseHexEPKcjPh
 .text._ZL20backpackUpdateEepromv
                0x00014484      0x1a2 libs/Shell.o
 .text._ZL9ledSetHexv
                0x00014626       0x90 libs/Shell.o
 .text._ZN13PinoccioShell4loopEv
                0x000146b6       0x16 libs/Shell.o
                0x000146b6                _ZN13PinoccioShell4loopEv
 .text._ZN13PinoccioShell10startShellEv
                0x000146cc      0x142 libs/Shell.o
                0x000146cc                _ZN13PinoccioShell10startShellEv
 .text._ZN13PinoccioShell5setupEv
                0x0001480e      0x5ac libs/Shell.o
                0x0001480e                _ZN13PinoccioShell5setupEv
 .text._Z9arg2arrayi
                0x00014dba      0x138 libs/Shell.o
                0x00014dba                _Z9arg2arrayi
 .text._ZL7hqPrintv
                0x00014ef2       0x6c libs/Shell.o
 .text._ZL12meshAnnouncev
                0x00014f5e       0x74 libs/Shell.o
 .text._ZL8meshSendv
                0x00014fd2      0x10c libs/Shell.o
 .text._ZNK9MinifloatILj4ELj4ELin4EEcvfEv
                0x000150de       0x80 libs/Shell.o
                0x000150de                _ZNK9MinifloatILj4ELj4ELin4EEcvfEv
 .text._ZL17backpackResourcesv
                0x0001515e      0x40c libs/Shell.o
 .text.startup._GLOBAL__sub_I_Shell
                0x0001556a        0x4 libs/Shell.o
 .text.getMemoryUsed
                0x0001556e       0x4a libs/memdebug.o
                0x0001556e                getMemoryUsed
 .text.getFreeMemory
                0x000155b8       0x30 libs/memdebug.o
                0x000155b8                getFreeMemory
 .text.getLargestBlockInFreeList
                0x000155e8       0x26 libs/memdebug.o
                0x000155e8                getLargestBlockInFreeList
 .text.getLargestNonFreeListBlock
                0x0001560e       0x44 libs/memdebug.o
                0x0001560e                getLargestNonFreeListBlock
 .text.getLargestAvailableMemoryBlock
                0x00015652       0x18 libs/memdebug.o
                0x00015652                getLargestAvailableMemoryBlock
 .text.showMemory
                0x0001566a       0x80 libs/memdebug.o
                0x0001566a                showMemory
 .text._ZN12StringBuffer12blockReserveEj
                0x000156ea       0x30 libs/StringBuffer.o
                0x000156ea                _ZN12StringBuffer12blockReserveEj
 .text._ZN12StringBufferC2Ejj
                0x0001571a       0x4a libs/StringBuffer.o
                0x0001571a                _ZN12StringBufferC1Ejj
                0x0001571a                _ZN12StringBufferC2Ejj
 .text._ZN12StringBuffer13appendSprintfEPKcz
                0x00015764       0xe8 libs/StringBuffer.o
                0x00015764                _ZN12StringBuffer13appendSprintfEPKcz
 .text._ZN12StringBuffer10readClientER6Clientj
                0x0001584c       0x80 libs/StringBuffer.o
                0x0001584c                _ZN12StringBuffer10readClientER6Clientj
 .text._ZN12StringBuffer16appendJsonStringEPKcjb
                0x000158cc      0x1f2 libs/StringBuffer.o
                0x000158cc                _ZN12StringBuffer16appendJsonStringEPKcjb
 .text._ZN12StringBuffer6concatEPKcj
                0x00015abe       0x78 libs/StringBuffer.o
                0x00015abe                _ZN12StringBuffer6concatEPKcj
 .text.startup._GLOBAL__sub_I__ZN12StringBufferC2Ejj
                0x00015b36       0x16 libs/StringBuffer.o
 .text._Z9pwmEnablev
                0x00015b4c       0x2c Bootstrap.o
                0x00015b4c                _Z9pwmEnablev
 .text._Z12timerDisablev
                0x00015b78        0xc Bootstrap.o
                0x00015b78                _Z12timerDisablev
 .text._Z8timerOCRv
                0x00015b84       0x16 Bootstrap.o
                0x00015b84                _Z8timerOCRv
 .text._Z8timerICRv
                0x00015b9a       0x16 Bootstrap.o
                0x00015b9a                _Z8timerICRv
 .text.setup    0x00015bb0       0x50 Bootstrap.o
                0x00015bb0                setup
 .text.loop     0x00015c00        0x8 Bootstrap.o
                0x00015c00                loop
 .text.startup._GLOBAL__sub_I_setup
                0x00015c08       0x16 Bootstrap.o
 .text.avr-libc.fplib
                0x00015c1e        0xa c:/program files/atmel/atmel toolchain/avr8 gcc/native/3.4.1051/avr8-gnu-toolchain/bin/../lib/gcc/avr/4.8.1/../../../../avr/lib/avr6\libm.a(addsf3.o)
                0x00015c1e                __subsf3
                0x00015c20                __addsf3
 .text.avr-libc.fplib
                0x00015c28       0xc0 c:/program files/atmel/atmel toolchain/avr8 gcc/native/3.4.1051/avr8-gnu-toolchain/bin/../lib/gcc/avr/4.8.1/../../../../avr/lib/avr6\libm.a(addsf3x.o)
                0x00015c42                __addsf3x
 .text.avr-libc.fplib
                0x00015ce8        0x8 c:/program files/atmel/atmel toolchain/avr8 gcc/native/3.4.1051/avr8-gnu-toolchain/bin/../lib/gcc/avr/4.8.1/../../../../avr/lib/avr6\libm.a(cmpsf2.o)
                0x00015ce8                __nesf2
                0x00015ce8                __eqsf2
                0x00015ce8                __cmpsf2
                0x00015ce8                __ltsf2
                0x00015ce8                __lesf2
 .text.avr-libc.fplib
                0x00015cf0        0x4 c:/program files/atmel/atmel toolchain/avr8 gcc/native/3.4.1051/avr8-gnu-toolchain/bin/../lib/gcc/avr/4.8.1/../../../../avr/lib/avr6\libm.a(divsf3.o)
                0x00015cf0                __divsf3
 .text.avr-libc.fplib
                0x00015cf4       0xcc c:/program files/atmel/atmel toolchain/avr8 gcc/native/3.4.1051/avr8-gnu-toolchain/bin/../lib/gcc/avr/4.8.1/../../../../avr/lib/avr6\libm.a(divsf3x.o)
                0x00015d0a                __divsf3x
                0x00015d0e                __divsf3_pse
 .text.avr-libc.fplib
                0x00015dc0        0xa c:/program files/atmel/atmel toolchain/avr8 gcc/native/3.4.1051/avr8-gnu-toolchain/bin/../lib/gcc/avr/4.8.1/../../../../avr/lib/avr6\libm.a(fixsfsi.o)
                0x00015dc0                __fixsfsi
 .text.avr-libc.fplib
                0x00015dca       0x58 c:/program files/atmel/atmel toolchain/avr8 gcc/native/3.4.1051/avr8-gnu-toolchain/bin/../lib/gcc/avr/4.8.1/../../../../avr/lib/avr6\libm.a(fixunssfsi.o)
                0x00015dca                __fixunssfsi
 .text.avr-libc.fplib
                0x00015e22       0x7a c:/program files/atmel/atmel toolchain/avr8 gcc/native/3.4.1051/avr8-gnu-toolchain/bin/../lib/gcc/avr/4.8.1/../../../../avr/lib/avr6\libm.a(floatsisf.o)
                0x00015e22                __floatunsisf
                0x00015e26                __floatsisf
 .text.avr-libc.fplib
                0x00015e9c       0x48 c:/program files/atmel/atmel toolchain/avr8 gcc/native/3.4.1051/avr8-gnu-toolchain/bin/../lib/gcc/avr/4.8.1/../../../../avr/lib/avr6\libm.a(fp_cmp.o)
                0x00015e9c                __fp_cmp
 .text.avr-libc.fplib
                0x00015ee4        0xc c:/program files/atmel/atmel toolchain/avr8 gcc/native/3.4.1051/avr8-gnu-toolchain/bin/../lib/gcc/avr/4.8.1/../../../../avr/lib/avr6\libm.a(fp_inf.o)
                0x00015ee4                __fp_inf
 .text.avr-libc.fplib
                0x00015ef0        0x6 c:/program files/atmel/atmel toolchain/avr8 gcc/native/3.4.1051/avr8-gnu-toolchain/bin/../lib/gcc/avr/4.8.1/../../../../avr/lib/avr6\libm.a(fp_nan.o)
                0x00015ef0                __fp_nan
 .text.avr-libc.fplib
                0x00015ef6        0xe c:/program files/atmel/atmel toolchain/avr8 gcc/native/3.4.1051/avr8-gnu-toolchain/bin/../lib/gcc/avr/4.8.1/../../../../avr/lib/avr6\libm.a(fp_pscA.o)
                0x00015ef6                __fp_pscA
 .text.avr-libc.fplib
                0x00015f04        0xe c:/program files/atmel/atmel toolchain/avr8 gcc/native/3.4.1051/avr8-gnu-toolchain/bin/../lib/gcc/avr/4.8.1/../../../../avr/lib/avr6\libm.a(fp_pscB.o)
                0x00015f04                __fp_pscB
 .text.avr-libc.fplib
                0x00015f12       0x22 c:/program files/atmel/atmel toolchain/avr8 gcc/native/3.4.1051/avr8-gnu-toolchain/bin/../lib/gcc/avr/4.8.1/../../../../avr/lib/avr6\libm.a(fp_round.o)
                0x00015f12                __fp_round
 .text.avr-libc.fplib
                0x00015f34       0x44 c:/program files/atmel/atmel toolchain/avr8 gcc/native/3.4.1051/avr8-gnu-toolchain/bin/../lib/gcc/avr/4.8.1/../../../../avr/lib/avr6\libm.a(fp_split3.o)
                0x00015f34                __fp_split3
                0x00015f44                __fp_splitA
 .text.avr-libc.fplib
                0x00015f78        0xe c:/program files/atmel/atmel toolchain/avr8 gcc/native/3.4.1051/avr8-gnu-toolchain/bin/../lib/gcc/avr/4.8.1/../../../../avr/lib/avr6\libm.a(fp_zero.o)
                0x00015f78                __fp_zero
                0x00015f7a                __fp_szero
 .text.avr-libc.fplib
                0x00015f86        0x8 c:/program files/atmel/atmel toolchain/avr8 gcc/native/3.4.1051/avr8-gnu-toolchain/bin/../lib/gcc/avr/4.8.1/../../../../avr/lib/avr6\libm.a(gesf2.o)
                0x00015f86                __gesf2
                0x00015f86                __gtsf2
 .text.avr-libc.fplib
                0x00015f8e        0x4 c:/program files/atmel/atmel toolchain/avr8 gcc/native/3.4.1051/avr8-gnu-toolchain/bin/../lib/gcc/avr/4.8.1/../../../../avr/lib/avr6\libm.a(mulsf3.o)
                0x00015f8e                __mulsf3
 .text.avr-libc.fplib
                0x00015f92       0xc2 c:/program files/atmel/atmel toolchain/avr8 gcc/native/3.4.1051/avr8-gnu-toolchain/bin/../lib/gcc/avr/4.8.1/../../../../avr/lib/avr6\libm.a(mulsf3x.o)
                0x00015fa6                __mulsf3x
                0x00015faa                __mulsf3_pse
 .text.avr-libc.fplib
                0x00016054        0x8 c:/program files/atmel/atmel toolchain/avr8 gcc/native/3.4.1051/avr8-gnu-toolchain/bin/../lib/gcc/avr/4.8.1/../../../../avr/lib/avr6\libm.a(unordsf2.o)
                0x00016054                __unordsf2
 .text.avr-libc
                0x0001605c      0x24e ../../../../pinoccio16mhz\libcore.a(malloc.c.o)
                0x0001605c                malloc
                0x0001618c                free
 .text.avr-libc
                0x000162aa      0x1c8 ../../../../pinoccio16mhz\libcore.a(realloc.c.o)
                0x000162aa                realloc
 .text.libgcc.mul
                0x00016472       0x1e c:/program files/atmel/atmel toolchain/avr8 gcc/native/3.4.1051/avr8-gnu-toolchain/bin/../lib/gcc/avr/4.8.1/avr6\libgcc.a(_mulsi3.o)
                0x00016472                __mulsi3
 .text.libgcc.div
                0x00016490       0x44 c:/program files/atmel/atmel toolchain/avr8 gcc/native/3.4.1051/avr8-gnu-toolchain/bin/../lib/gcc/avr/4.8.1/avr6\libgcc.a(_udivmodsi4.o)
                0x00016490                __udivmodsi4
 .text.libgcc.div
                0x000164d4       0x28 c:/program files/atmel/atmel toolchain/avr8 gcc/native/3.4.1051/avr8-gnu-toolchain/bin/../lib/gcc/avr/4.8.1/avr6\libgcc.a(_divmodsi4.o)
                0x000164d4                __divmodsi4
 .text.libgcc.div
                0x000164fc       0x10 c:/program files/atmel/atmel toolchain/avr8 gcc/native/3.4.1051/avr8-gnu-toolchain/bin/../lib/gcc/avr/4.8.1/avr6\libgcc.a(_negsi2.o)
                0x000164fc                __negsi2
 .text.libgcc   0x0001650c        0xc c:/program files/atmel/atmel toolchain/avr8 gcc/native/3.4.1051/avr8-gnu-toolchain/bin/../lib/gcc/avr/4.8.1/avr6\libgcc.a(_tablejump.o)
                0x0001650c                __tablejump2__
                0x00016510                __tablejump__
 .text.libgcc.mul
                0x00016518       0x14 c:/program files/atmel/atmel toolchain/avr8 gcc/native/3.4.1051/avr8-gnu-toolchain/bin/../lib/gcc/avr/4.8.1/avr6\libgcc.a(_muluhisi3.o)
                0x00016518                __muluhisi3
 .text.libgcc   0x0001652c        0x8 c:/program files/atmel/atmel toolchain/avr8 gcc/native/3.4.1051/avr8-gnu-toolchain/bin/../lib/gcc/avr/4.8.1/avr6\libgcc.a(_tablejump_elpm.o)
                0x0001652c                __tablejump_elpm__
 .text.libgcc.mul
                0x00016534       0x1e c:/program files/atmel/atmel toolchain/avr8 gcc/native/3.4.1051/avr8-gnu-toolchain/bin/../lib/gcc/avr/4.8.1/avr6\libgcc.a(_umulhisi3.o)
                0x00016534                __umulhisi3
 .text.avr-libc
                0x00016552       0xae c:/program files/atmel/atmel toolchain/avr8 gcc/native/3.4.1051/avr8-gnu-toolchain/bin/../lib/gcc/avr/4.8.1/../../../../avr/lib/avr6\libc.a(rand.o)
                0x000165e2                rand_r
                0x000165e4                rand
                0x000165ea                srand
 .text.avr-libc
                0x00016600       0xac c:/program files/atmel/atmel toolchain/avr8 gcc/native/3.4.1051/avr8-gnu-toolchain/bin/../lib/gcc/avr/4.8.1/../../../../avr/lib/avr6\libc.a(random.o)
                0x00016692                random_r
                0x00016694                random
                0x0001669a                srandom
 .text.avr-libc
                0x000166ac      0x222 c:/program files/atmel/atmel toolchain/avr8 gcc/native/3.4.1051/avr8-gnu-toolchain/bin/../lib/gcc/avr/4.8.1/../../../../avr/lib/avr6\libc.a(strtoul.o)
                0x000166ac                strtoul
 .text.avr-libc
                0x000168ce       0x3a c:/program files/atmel/atmel toolchain/avr8 gcc/native/3.4.1051/avr8-gnu-toolchain/bin/../lib/gcc/avr/4.8.1/../../../../avr/lib/avr6\libc.a(atoi.o)
                0x000168ce                atoi
 .text.avr-libc
                0x00016908       0x8e c:/program files/atmel/atmel toolchain/avr8 gcc/native/3.4.1051/avr8-gnu-toolchain/bin/../lib/gcc/avr/4.8.1/../../../../avr/lib/avr6\libc.a(setjmp.o)
                0x00016908                setjmp
                0x0001694c                longjmp
 .text.avr-libc
                0x00016996       0x10 c:/program files/atmel/atmel toolchain/avr8 gcc/native/3.4.1051/avr8-gnu-toolchain/bin/../lib/gcc/avr/4.8.1/../../../../avr/lib/avr6\libc.a(isalnum.o)
                0x00016996                isalnum
 .text.avr-libc
                0x000169a6        0x6 c:/program files/atmel/atmel toolchain/avr8 gcc/native/3.4.1051/avr8-gnu-toolchain/bin/../lib/gcc/avr/4.8.1/../../../../avr/lib/avr6\libc.a(cty_isfalse.o)
                0x000169a6                __ctype_isfalse
                0x000169aa                __ctype_istrue
 .text.avr-libc
                0x000169ac       0x12 c:/program files/atmel/atmel toolchain/avr8 gcc/native/3.4.1051/avr8-gnu-toolchain/bin/../lib/gcc/avr/4.8.1/../../../../avr/lib/avr6\libc.a(isalpha.o)
                0x000169ac                isupper
                0x000169b0                isalpha
                0x000169b2                islower
 .text.avr-libc
                0x000169be       0x16 c:/program files/atmel/atmel toolchain/avr8 gcc/native/3.4.1051/avr8-gnu-toolchain/bin/../lib/gcc/avr/4.8.1/../../../../avr/lib/avr6\libc.a(isxdigit.o)
                0x000169be                isxdigit
 .text.avr-libc
                0x000169d4       0x10 c:/program files/atmel/atmel toolchain/avr8 gcc/native/3.4.1051/avr8-gnu-toolchain/bin/../lib/gcc/avr/4.8.1/../../../../avr/lib/avr6\libc.a(isprint.o)
                0x000169d4                isgraph
                0x000169d8                isprint
 .text.avr-libc
                0x000169e4       0x10 c:/program files/atmel/atmel toolchain/avr8 gcc/native/3.4.1051/avr8-gnu-toolchain/bin/../lib/gcc/avr/4.8.1/../../../../avr/lib/avr6\libc.a(isspace.o)
                0x000169e4                isspace
 .text.avr-libc
                0x000169f4       0x10 c:/program files/atmel/atmel toolchain/avr8 gcc/native/3.4.1051/avr8-gnu-toolchain/bin/../lib/gcc/avr/4.8.1/../../../../avr/lib/avr6\libc.a(tolower.o)
                0x000169f4                tolower
 .text.avr-libc
                0x00016a04       0x12 c:/program files/atmel/atmel toolchain/avr8 gcc/native/3.4.1051/avr8-gnu-toolchain/bin/../lib/gcc/avr/4.8.1/../../../../avr/lib/avr6\libc.a(strcmp_P.o)
                0x00016a04                strcmp_P
 .text.avr-libc
                0x00016a16        0xe c:/program files/atmel/atmel toolchain/avr8 gcc/native/3.4.1051/avr8-gnu-toolchain/bin/../lib/gcc/avr/4.8.1/../../../../avr/lib/avr6\libc.a(strcpy_P.o)
                0x00016a16                strcpy_P
 .text.avr-libc
                0x00016a24       0x12 c:/program files/atmel/atmel toolchain/avr8 gcc/native/3.4.1051/avr8-gnu-toolchain/bin/../lib/gcc/avr/4.8.1/../../../../avr/lib/avr6\libc.a(strlen_P.o)
                0x00016a24                __strlen_P
 .text.avr-libc
                0x00016a36       0x1e c:/program files/atmel/atmel toolchain/avr8 gcc/native/3.4.1051/avr8-gnu-toolchain/bin/../lib/gcc/avr/4.8.1/../../../../avr/lib/avr6\libc.a(strncpy_P.o)
                0x00016a36                strncpy_P
 .text.avr-libc
                0x00016a54       0x30 c:/program files/atmel/atmel toolchain/avr8 gcc/native/3.4.1051/avr8-gnu-toolchain/bin/../lib/gcc/avr/4.8.1/../../../../avr/lib/avr6\libc.a(strdup.o)
                0x00016a54                strdup
 .text.avr-libc
                0x00016a84       0x12 c:/program files/atmel/atmel toolchain/avr8 gcc/native/3.4.1051/avr8-gnu-toolchain/bin/../lib/gcc/avr/4.8.1/../../../../avr/lib/avr6\libc.a(memcpy.o)
                0x00016a84                memcpy
 .text.avr-libc
                0x00016a96       0x22 c:/program files/atmel/atmel toolchain/avr8 gcc/native/3.4.1051/avr8-gnu-toolchain/bin/../lib/gcc/avr/4.8.1/../../../../avr/lib/avr6\libc.a(memmove.o)
                0x00016a96                memmove
 .text.avr-libc
                0x00016ab8        0xe c:/program files/atmel/atmel toolchain/avr8 gcc/native/3.4.1051/avr8-gnu-toolchain/bin/../lib/gcc/avr/4.8.1/../../../../avr/lib/avr6\libc.a(memset.o)
                0x00016ab8                memset
 .text.avr-libc
                0x00016ac6       0x16 c:/program files/atmel/atmel toolchain/avr8 gcc/native/3.4.1051/avr8-gnu-toolchain/bin/../lib/gcc/avr/4.8.1/../../../../avr/lib/avr6\libc.a(strchr.o)
                0x00016ac6                strchr
 .text.avr-libc
                0x00016adc       0x12 c:/program files/atmel/atmel toolchain/avr8 gcc/native/3.4.1051/avr8-gnu-toolchain/bin/../lib/gcc/avr/4.8.1/../../../../avr/lib/avr6\libc.a(strcmp.o)
                0x00016adc                strcmp
 .text.avr-libc
                0x00016aee        0xe c:/program files/atmel/atmel toolchain/avr8 gcc/native/3.4.1051/avr8-gnu-toolchain/bin/../lib/gcc/avr/4.8.1/../../../../avr/lib/avr6\libc.a(strcpy.o)
                0x00016aee                strcpy
 .text.avr-libc
                0x00016afc       0x1c c:/program files/atmel/atmel toolchain/avr8 gcc/native/3.4.1051/avr8-gnu-toolchain/bin/../lib/gcc/avr/4.8.1/../../../../avr/lib/avr6\libc.a(strncmp.o)
                0x00016afc                strncmp
 .text.avr-libc
                0x00016b18       0x1e c:/program files/atmel/atmel toolchain/avr8 gcc/native/3.4.1051/avr8-gnu-toolchain/bin/../lib/gcc/avr/4.8.1/../../../../avr/lib/avr6\libc.a(strncpy.o)
                0x00016b18                strncpy
 .text.avr-libc
                0x00016b36       0x14 c:/program files/atmel/atmel toolchain/avr8 gcc/native/3.4.1051/avr8-gnu-toolchain/bin/../lib/gcc/avr/4.8.1/../../../../avr/lib/avr6\libc.a(itoa.o)
                0x00016b36                __itoa
                0x00016b36                itoa
 .text.avr-libc
                0x00016b4a       0x14 c:/program files/atmel/atmel toolchain/avr8 gcc/native/3.4.1051/avr8-gnu-toolchain/bin/../lib/gcc/avr/4.8.1/../../../../avr/lib/avr6\libc.a(itoa_ncheck.o)
                0x00016b4a                __itoa_ncheck
 .text.avr-libc
                0x00016b5e       0x14 c:/program files/atmel/atmel toolchain/avr8 gcc/native/3.4.1051/avr8-gnu-toolchain/bin/../lib/gcc/avr/4.8.1/../../../../avr/lib/avr6\libc.a(ltoa.o)
                0x00016b5e                ltoa
                0x00016b5e                __ltoa
 .text.avr-libc
                0x00016b72       0x1c c:/program files/atmel/atmel toolchain/avr8 gcc/native/3.4.1051/avr8-gnu-toolchain/bin/../lib/gcc/avr/4.8.1/../../../../avr/lib/avr6\libc.a(ltoa_ncheck.o)
                0x00016b72                __ltoa_ncheck
 .text.avr-libc
                0x00016b8e       0x10 c:/program files/atmel/atmel toolchain/avr8 gcc/native/3.4.1051/avr8-gnu-toolchain/bin/../lib/gcc/avr/4.8.1/../../../../avr/lib/avr6\libc.a(mul10.o)
                0x00016b8e                __mulhi_const_10
 .text.avr-libc
                0x00016b9e       0x14 c:/program files/atmel/atmel toolchain/avr8 gcc/native/3.4.1051/avr8-gnu-toolchain/bin/../lib/gcc/avr/4.8.1/../../../../avr/lib/avr6\libc.a(ultoa.o)
                0x00016b9e                ultoa
                0x00016b9e                __ultoa
 .text.avr-libc
                0x00016bb2       0x42 c:/program files/atmel/atmel toolchain/avr8 gcc/native/3.4.1051/avr8-gnu-toolchain/bin/../lib/gcc/avr/4.8.1/../../../../avr/lib/avr6\libc.a(ultoa_ncheck.o)
                0x00016bb2                __ultoa_ncheck
                0x00016bb4                __ultoa_common
 .text.avr-libc
                0x00016bf4       0x14 c:/program files/atmel/atmel toolchain/avr8 gcc/native/3.4.1051/avr8-gnu-toolchain/bin/../lib/gcc/avr/4.8.1/../../../../avr/lib/avr6\libc.a(utoa.o)
                0x00016bf4                __utoa
                0x00016bf4                utoa
 .text.avr-libc
                0x00016c08       0x32 c:/program files/atmel/atmel toolchain/avr8 gcc/native/3.4.1051/avr8-gnu-toolchain/bin/../lib/gcc/avr/4.8.1/../../../../avr/lib/avr6\libc.a(utoa_ncheck.o)
                0x00016c08                __utoa_ncheck
                0x00016c0a                __utoa_common
 .text.avr-libc
                0x00016c3a       0x78 c:/program files/atmel/atmel toolchain/avr8 gcc/native/3.4.1051/avr8-gnu-toolchain/bin/../lib/gcc/avr/4.8.1/../../../../avr/lib/avr6\libc.a(snprintf.o)
                0x00016c3a                snprintf
 .text.avr-libc
                0x00016cb2       0x5c c:/program files/atmel/atmel toolchain/avr8 gcc/native/3.4.1051/avr8-gnu-toolchain/bin/../lib/gcc/avr/4.8.1/../../../../avr/lib/avr6\libc.a(sprintf.o)
                0x00016cb2                sprintf
 .text.avr-libc
                0x00016d0e       0x70 c:/program files/atmel/atmel toolchain/avr8 gcc/native/3.4.1051/avr8-gnu-toolchain/bin/../lib/gcc/avr/4.8.1/../../../../avr/lib/avr6\libc.a(vsnprintf.o)
                0x00016d0e                vsnprintf
 .text.avr-libc
                0x00016d7e      0x3dc c:/program files/atmel/atmel toolchain/avr8 gcc/native/3.4.1051/avr8-gnu-toolchain/bin/../lib/gcc/avr/4.8.1/../../../../avr/lib/avr6\libc.a(vfprintf_std.o)
                0x00016d7e                vfprintf
 .text.avr-libc
                0x0001715a       0x10 c:/program files/atmel/atmel toolchain/avr8 gcc/native/3.4.1051/avr8-gnu-toolchain/bin/../lib/gcc/avr/4.8.1/../../../../avr/lib/avr6\libc.a(eerd_byte_atmega256rfr2.o)
                0x0001715a                __eerd_byte_EEPROM_SUFFIX
 .text.avr-libc
                0x0001716a        0xa c:/program files/atmel/atmel toolchain/avr8 gcc/native/3.4.1051/avr8-gnu-toolchain/bin/../lib/gcc/avr/4.8.1/../../../../avr/lib/avr6\libc.a(eerd_dword_atmega256rfr2.o)
                0x0001716a                __eerd_dword_EEPROM_SUFFIX
                0x0001716a                __eerd_float_EEPROM_SUFFIX
 .text.avr-libc
                0x00017174        0xa c:/program files/atmel/atmel toolchain/avr8 gcc/native/3.4.1051/avr8-gnu-toolchain/bin/../lib/gcc/avr/4.8.1/../../../../avr/lib/avr6\libc.a(eerd_word_atmega256rfr2.o)
                0x00017174                __eerd_word_EEPROM_SUFFIX
 .text.avr-libc
                0x0001717e       0x24 c:/program files/atmel/atmel toolchain/avr8 gcc/native/3.4.1051/avr8-gnu-toolchain/bin/../lib/gcc/avr/4.8.1/../../../../avr/lib/avr6\libc.a(eeupd_byte_atmega256rfr2.o)
                0x0001717e                __eeupd_byte_EEPROM_SUFFIX
                0x00017180                __eeupd_r18_EEPROM_SUFFIX
 .text.avr-libc
                0x000171a2        0x8 c:/program files/atmel/atmel toolchain/avr8 gcc/native/3.4.1051/avr8-gnu-toolchain/bin/../lib/gcc/avr/4.8.1/../../../../avr/lib/avr6\libc.a(eeupd_word_atmega256rfr2.o)
                0x000171a2                __eeupd_word_EEPROM_SUFFIX
 .text.avr-libc
                0x000171aa       0x1c c:/program files/atmel/atmel toolchain/avr8 gcc/native/3.4.1051/avr8-gnu-toolchain/bin/../lib/gcc/avr/4.8.1/../../../../avr/lib/avr6\libc.a(eewr_byte_atmega256rfr2.o)
                0x000171aa                __eewr_byte_EEPROM_SUFFIX
                0x000171ac                __eewr_r18_EEPROM_SUFFIX
 .text.avr-libc
                0x000171c6       0x16 c:/program files/atmel/atmel toolchain/avr8 gcc/native/3.4.1051/avr8-gnu-toolchain/bin/../lib/gcc/avr/4.8.1/../../../../avr/lib/avr6\libc.a(strnlen_P.o)
                0x000171c6                strnlen_P
 .text.avr-libc
                0x000171dc       0x16 c:/program files/atmel/atmel toolchain/avr8 gcc/native/3.4.1051/avr8-gnu-toolchain/bin/../lib/gcc/avr/4.8.1/../../../../avr/lib/avr6\libc.a(strnlen.o)
                0x000171dc                strnlen
 .text.avr-libc
                0x000171f2       0x20 c:/program files/atmel/atmel toolchain/avr8 gcc/native/3.4.1051/avr8-gnu-toolchain/bin/../lib/gcc/avr/4.8.1/../../../../avr/lib/avr6\libc.a(strrev.o)
                0x000171f2                strrev
 .text.avr-libc
                0x00017212       0x64 c:/program files/atmel/atmel toolchain/avr8 gcc/native/3.4.1051/avr8-gnu-toolchain/bin/../lib/gcc/avr/4.8.1/../../../../avr/lib/avr6\libc.a(fputc.o)
                0x00017212                fputc
 .text.avr-libc
                0x00017276       0xbc c:/program files/atmel/atmel toolchain/avr8 gcc/native/3.4.1051/avr8-gnu-toolchain/bin/../lib/gcc/avr/4.8.1/../../../../avr/lib/avr6\libc.a(ultoa_invert.o)
                0x00017276                __ultoa_invert
 .text.avr-libc
                0x00017332       0x20 c:/program files/atmel/atmel toolchain/avr8 gcc/native/3.4.1051/avr8-gnu-toolchain/bin/../lib/gcc/avr/4.8.1/../../../../avr/lib/avr6\libc.a(eerd_block_atmega256rfr2.o)
                0x00017332                __eerd_block_EEPROM_SUFFIX
                0x00017336                __eerd_blraw_EEPROM_SUFFIX
 .text.libgcc.mul
                0x00017352        0xc c:/program files/atmel/atmel toolchain/avr8 gcc/native/3.4.1051/avr8-gnu-toolchain/bin/../lib/gcc/avr/4.8.1/avr6\libgcc.a(_mulshisi3.o)
                0x00017352                __mulshisi3
                0x00017356                __mulohisi3
                0x0001735e                . = ALIGN (0x2)
 *(.fini9)
 .fini9         0x0001735e        0x0 c:/program files/atmel/atmel toolchain/avr8 gcc/native/3.4.1051/avr8-gnu-toolchain/bin/../lib/gcc/avr/4.8.1/avr6\libgcc.a(_exit.o)
                0x0001735e                _exit
                0x0001735e                exit
 *(.fini9)
 *(.fini8)
 *(.fini8)
 *(.fini7)
 *(.fini7)
 *(.fini6)
 .fini6         0x0001735e       0x1e c:/program files/atmel/atmel toolchain/avr8 gcc/native/3.4.1051/avr8-gnu-toolchain/bin/../lib/gcc/avr/4.8.1/avr6\libgcc.a(_dtors.o)
                0x0001735e                __do_global_dtors
 *(.fini6)
 *(.fini5)
 *(.fini5)
 *(.fini4)
 *(.fini4)
 *(.fini3)
 *(.fini3)
 *(.fini2)
 *(.fini2)
 *(.fini1)
 *(.fini1)
 *(.fini0)
 .fini0         0x0001737c        0x4 c:/program files/atmel/atmel toolchain/avr8 gcc/native/3.4.1051/avr8-gnu-toolchain/bin/../lib/gcc/avr/4.8.1/avr6\libgcc.a(_exit.o)
 *(.fini0)
                0x00017380                _etext = .

.data           0x00800200     0x2204 load address 0x00017380
                0x00800200                PROVIDE (__data_start, .)
 *(.data)
 .data          0x00800200        0x0 c:/program files/atmel/atmel toolchain/avr8 gcc/native/3.4.1051/avr8-gnu-toolchain/bin/../lib/gcc/avr/4.8.1/../../../../avr/lib/avr6/crtm256rfr2.o
 .data          0x00800200        0x0 libs/CDC.o
 .data          0x00800200        0x0 libs/HardwareSerial.o
 .data          0x00800200        0x0 libs/HardwareSerial0.o
 .data          0x00800200        0x0 libs/HardwareSerial1.o
 .data          0x00800200        0x0 libs/HardwareSerial2.o
 .data          0x00800200        0x0 libs/HardwareSerial3.o
 .data          0x00800200        0x0 libs/HID.o
 .data          0x00800200        0x0 libs/hooks.o
 .data          0x00800200        0x0 libs/IPAddress.o
 .data          0x00800200        0x0 libs/main.o
 .data          0x00800200        0x0 libs/new.o
 .data          0x00800200        0x0 libs/Print.o
 .data          0x00800200        0x0 libs/Stream.o
 .data          0x00800200        0x0 libs/Tone.o
 .data          0x00800200        0x0 libs/USBCore.o
 .data          0x00800200        0x0 libs/WInterrupts.o
 .data          0x00800200        0x0 libs/wiring.o
 .data          0x00800200        0x0 libs/wiring_analog.o
 .data          0x00800200        0x0 libs/wiring_digital.o
 .data          0x00800200        0x0 libs/wiring_pulse.o
 .data          0x00800200        0x0 libs/wiring_shift.o
 .data          0x00800200        0x0 libs/WMath.o
 .data          0x00800200        0x0 libs/WString.o
 .data          0x00800200        0x0 libs/SPI.o
 .data          0x00800200        0x0 libs/twi.o
 .data          0x00800200        0x0 libs/Wire.o
 .data          0x00800200        0x0 libs/bitlash.o
 .data          0x00800200        0x0 libs/GSClient.o
 .data          0x00800200        0x0 libs/GSCore.o
 .data          0x00800200        0x0 libs/GSModule.o
 .data          0x00800200        0x0 libs/GSTcpClient.o
 .data          0x00800200        0x0 libs/GSUdpClient.o
 .data          0x00800200        0x0 libs/GSUdpServer.o
 .data          0x00800200        0x0 libs/j0g.o
 .data          0x00800200        0x0 libs/js0n.o
 .data          0x00800200        0x0 libs/nwk.o
 .data          0x00800200        0x0 libs/nwkDataReq.o
 .data          0x00800200        0x0 libs/nwkFrame.o
 .data          0x00800200        0x0 libs/nwkGroup.o
 .data          0x00800200        0x0 libs/nwkRoute.o
 .data          0x00800200        0x0 libs/nwkRouteDiscovery.o
 .data          0x00800200        0x0 libs/nwkRx.o
 .data          0x00800200        0x0 libs/nwkSecurity.o
 .data          0x00800200        0x0 libs/nwkTx.o
 .data          0x00800200        0x0 libs/phy.o
 .data          0x00800200        0x0 libs/sys.o
 .data          0x00800200        0x0 libs/sysEncrypt.o
 .data          0x00800200        0x0 libs/sysTimer.o
 .data          0x00800200        0x0 libs/Pbbe.o
 .data          0x00800200        0x0 libs/PBBP.o
 .data          0x00800200        0x0 libs/Backpack.o
 .data          0x00800200        0x0 libs/Backpacks.o
 .data          0x00800200        0x0 libs/WiFiBackpack.o
 .data          0x00800200        0x0 libs/HqInfo.o
 .data          0x00800200        0x0 libs/key.o
 .data          0x00800200        0x0 libs/Flash.o
 .data          0x00800200        0x0 libs/halFuelGauge.o
 .data          0x00800200        0x0 libs/halRgbLed.o
 .data          0x00800200        0x0 libs/halTemperature.o
 .data          0x00800200        0x0 libs/Pinoccio.o
 .data          0x00800200        0x0 libs/Scout.o
 .data          0x00800200        0x0 libs/ScoutHandler.o
 .data          0x00800200        0x0 libs/Shell.o
 .data          0x00800200        0x0 libs/memdebug.o
 .data          0x00800200        0x0 libs/StringBuffer.o
 .data          0x00800200        0x0 Bootstrap.o
 .data          0x00800200        0x0 c:/program files/atmel/atmel toolchain/avr8 gcc/native/3.4.1051/avr8-gnu-toolchain/bin/../lib/gcc/avr/4.8.1/../../../../avr/lib/avr6\libm.a(addsf3.o)
 .data          0x00800200        0x0 c:/program files/atmel/atmel toolchain/avr8 gcc/native/3.4.1051/avr8-gnu-toolchain/bin/../lib/gcc/avr/4.8.1/../../../../avr/lib/avr6\libm.a(addsf3x.o)
 .data          0x00800200        0x0 c:/program files/atmel/atmel toolchain/avr8 gcc/native/3.4.1051/avr8-gnu-toolchain/bin/../lib/gcc/avr/4.8.1/../../../../avr/lib/avr6\libm.a(cmpsf2.o)
 .data          0x00800200        0x0 c:/program files/atmel/atmel toolchain/avr8 gcc/native/3.4.1051/avr8-gnu-toolchain/bin/../lib/gcc/avr/4.8.1/../../../../avr/lib/avr6\libm.a(divsf3.o)
 .data          0x00800200        0x0 c:/program files/atmel/atmel toolchain/avr8 gcc/native/3.4.1051/avr8-gnu-toolchain/bin/../lib/gcc/avr/4.8.1/../../../../avr/lib/avr6\libm.a(divsf3x.o)
 .data          0x00800200        0x0 c:/program files/atmel/atmel toolchain/avr8 gcc/native/3.4.1051/avr8-gnu-toolchain/bin/../lib/gcc/avr/4.8.1/../../../../avr/lib/avr6\libm.a(fixsfsi.o)
 .data          0x00800200        0x0 c:/program files/atmel/atmel toolchain/avr8 gcc/native/3.4.1051/avr8-gnu-toolchain/bin/../lib/gcc/avr/4.8.1/../../../../avr/lib/avr6\libm.a(fixunssfsi.o)
 .data          0x00800200        0x0 c:/program files/atmel/atmel toolchain/avr8 gcc/native/3.4.1051/avr8-gnu-toolchain/bin/../lib/gcc/avr/4.8.1/../../../../avr/lib/avr6\libm.a(floatsisf.o)
 .data          0x00800200        0x0 c:/program files/atmel/atmel toolchain/avr8 gcc/native/3.4.1051/avr8-gnu-toolchain/bin/../lib/gcc/avr/4.8.1/../../../../avr/lib/avr6\libm.a(fp_cmp.o)
 .data          0x00800200        0x0 c:/program files/atmel/atmel toolchain/avr8 gcc/native/3.4.1051/avr8-gnu-toolchain/bin/../lib/gcc/avr/4.8.1/../../../../avr/lib/avr6\libm.a(fp_inf.o)
 .data          0x00800200        0x0 c:/program files/atmel/atmel toolchain/avr8 gcc/native/3.4.1051/avr8-gnu-toolchain/bin/../lib/gcc/avr/4.8.1/../../../../avr/lib/avr6\libm.a(fp_nan.o)
 .data          0x00800200        0x0 c:/program files/atmel/atmel toolchain/avr8 gcc/native/3.4.1051/avr8-gnu-toolchain/bin/../lib/gcc/avr/4.8.1/../../../../avr/lib/avr6\libm.a(fp_pscA.o)
 .data          0x00800200        0x0 c:/program files/atmel/atmel toolchain/avr8 gcc/native/3.4.1051/avr8-gnu-toolchain/bin/../lib/gcc/avr/4.8.1/../../../../avr/lib/avr6\libm.a(fp_pscB.o)
 .data          0x00800200        0x0 c:/program files/atmel/atmel toolchain/avr8 gcc/native/3.4.1051/avr8-gnu-toolchain/bin/../lib/gcc/avr/4.8.1/../../../../avr/lib/avr6\libm.a(fp_round.o)
 .data          0x00800200        0x0 c:/program files/atmel/atmel toolchain/avr8 gcc/native/3.4.1051/avr8-gnu-toolchain/bin/../lib/gcc/avr/4.8.1/../../../../avr/lib/avr6\libm.a(fp_split3.o)
 .data          0x00800200        0x0 c:/program files/atmel/atmel toolchain/avr8 gcc/native/3.4.1051/avr8-gnu-toolchain/bin/../lib/gcc/avr/4.8.1/../../../../avr/lib/avr6\libm.a(fp_zero.o)
 .data          0x00800200        0x0 c:/program files/atmel/atmel toolchain/avr8 gcc/native/3.4.1051/avr8-gnu-toolchain/bin/../lib/gcc/avr/4.8.1/../../../../avr/lib/avr6\libm.a(gesf2.o)
 .data          0x00800200        0x0 c:/program files/atmel/atmel toolchain/avr8 gcc/native/3.4.1051/avr8-gnu-toolchain/bin/../lib/gcc/avr/4.8.1/../../../../avr/lib/avr6\libm.a(mulsf3.o)
 .data          0x00800200        0x0 c:/program files/atmel/atmel toolchain/avr8 gcc/native/3.4.1051/avr8-gnu-toolchain/bin/../lib/gcc/avr/4.8.1/../../../../avr/lib/avr6\libm.a(mulsf3x.o)
 .data          0x00800200        0x0 c:/program files/atmel/atmel toolchain/avr8 gcc/native/3.4.1051/avr8-gnu-toolchain/bin/../lib/gcc/avr/4.8.1/../../../../avr/lib/avr6\libm.a(unordsf2.o)
 .data          0x00800200        0x0 ../../../../pinoccio16mhz\libcore.a(malloc.c.o)
 .data          0x00800200        0x0 ../../../../pinoccio16mhz\libcore.a(realloc.c.o)
 .data          0x00800200        0x0 c:/program files/atmel/atmel toolchain/avr8 gcc/native/3.4.1051/avr8-gnu-toolchain/bin/../lib/gcc/avr/4.8.1/avr6\libgcc.a(_mulsi3.o)
 .data          0x00800200        0x0 c:/program files/atmel/atmel toolchain/avr8 gcc/native/3.4.1051/avr8-gnu-toolchain/bin/../lib/gcc/avr/4.8.1/avr6\libgcc.a(_udivmodsi4.o)
 .data          0x00800200        0x0 c:/program files/atmel/atmel toolchain/avr8 gcc/native/3.4.1051/avr8-gnu-toolchain/bin/../lib/gcc/avr/4.8.1/avr6\libgcc.a(_divmodsi4.o)
 .data          0x00800200        0x0 c:/program files/atmel/atmel toolchain/avr8 gcc/native/3.4.1051/avr8-gnu-toolchain/bin/../lib/gcc/avr/4.8.1/avr6\libgcc.a(_negsi2.o)
 .data          0x00800200        0x0 c:/program files/atmel/atmel toolchain/avr8 gcc/native/3.4.1051/avr8-gnu-toolchain/bin/../lib/gcc/avr/4.8.1/avr6\libgcc.a(_exit.o)
 .data          0x00800200        0x0 c:/program files/atmel/atmel toolchain/avr8 gcc/native/3.4.1051/avr8-gnu-toolchain/bin/../lib/gcc/avr/4.8.1/avr6\libgcc.a(_tablejump.o)
 .data          0x00800200        0x0 c:/program files/atmel/atmel toolchain/avr8 gcc/native/3.4.1051/avr8-gnu-toolchain/bin/../lib/gcc/avr/4.8.1/avr6\libgcc.a(_copy_data.o)
 .data          0x00800200        0x0 c:/program files/atmel/atmel toolchain/avr8 gcc/native/3.4.1051/avr8-gnu-toolchain/bin/../lib/gcc/avr/4.8.1/avr6\libgcc.a(_clear_bss.o)
 .data          0x00800200        0x0 c:/program files/atmel/atmel toolchain/avr8 gcc/native/3.4.1051/avr8-gnu-toolchain/bin/../lib/gcc/avr/4.8.1/avr6\libgcc.a(_ctors.o)
 .data          0x00800200        0x0 c:/program files/atmel/atmel toolchain/avr8 gcc/native/3.4.1051/avr8-gnu-toolchain/bin/../lib/gcc/avr/4.8.1/avr6\libgcc.a(_dtors.o)
 .data          0x00800200        0x0 c:/program files/atmel/atmel toolchain/avr8 gcc/native/3.4.1051/avr8-gnu-toolchain/bin/../lib/gcc/avr/4.8.1/avr6\libgcc.a(_muluhisi3.o)
 .data          0x00800200        0x0 c:/program files/atmel/atmel toolchain/avr8 gcc/native/3.4.1051/avr8-gnu-toolchain/bin/../lib/gcc/avr/4.8.1/avr6\libgcc.a(_tablejump_elpm.o)
 .data          0x00800200        0x0 c:/program files/atmel/atmel toolchain/avr8 gcc/native/3.4.1051/avr8-gnu-toolchain/bin/../lib/gcc/avr/4.8.1/avr6\libgcc.a(_umulhisi3.o)
 .data          0x00800200        0x0 c:/program files/atmel/atmel toolchain/avr8 gcc/native/3.4.1051/avr8-gnu-toolchain/bin/../lib/gcc/avr/4.8.1/../../../../avr/lib/avr6\libc.a(dtostrf.o)
 .data          0x00800200        0x4 c:/program files/atmel/atmel toolchain/avr8 gcc/native/3.4.1051/avr8-gnu-toolchain/bin/../lib/gcc/avr/4.8.1/../../../../avr/lib/avr6\libc.a(rand.o)
 .data          0x00800204        0x4 c:/program files/atmel/atmel toolchain/avr8 gcc/native/3.4.1051/avr8-gnu-toolchain/bin/../lib/gcc/avr/4.8.1/../../../../avr/lib/avr6\libc.a(random.o)
 .data          0x00800208        0x0 c:/program files/atmel/atmel toolchain/avr8 gcc/native/3.4.1051/avr8-gnu-toolchain/bin/../lib/gcc/avr/4.8.1/../../../../avr/lib/avr6\libc.a(strtoul.o)
 .data          0x00800208        0x0 c:/program files/atmel/atmel toolchain/avr8 gcc/native/3.4.1051/avr8-gnu-toolchain/bin/../lib/gcc/avr/4.8.1/../../../../avr/lib/avr6\libc.a(atof.o)
 .data          0x00800208        0x0 c:/program files/atmel/atmel toolchain/avr8 gcc/native/3.4.1051/avr8-gnu-toolchain/bin/../lib/gcc/avr/4.8.1/../../../../avr/lib/avr6\libc.a(atoi.o)
 .data          0x00800208        0x0 c:/program files/atmel/atmel toolchain/avr8 gcc/native/3.4.1051/avr8-gnu-toolchain/bin/../lib/gcc/avr/4.8.1/../../../../avr/lib/avr6\libc.a(atol.o)
 .data          0x00800208        0x0 c:/program files/atmel/atmel toolchain/avr8 gcc/native/3.4.1051/avr8-gnu-toolchain/bin/../lib/gcc/avr/4.8.1/../../../../avr/lib/avr6\libc.a(setjmp.o)
 .data          0x00800208        0x0 c:/program files/atmel/atmel toolchain/avr8 gcc/native/3.4.1051/avr8-gnu-toolchain/bin/../lib/gcc/avr/4.8.1/../../../../avr/lib/avr6\libc.a(isalnum.o)
 .data          0x00800208        0x0 c:/program files/atmel/atmel toolchain/avr8 gcc/native/3.4.1051/avr8-gnu-toolchain/bin/../lib/gcc/avr/4.8.1/../../../../avr/lib/avr6\libc.a(cty_isfalse.o)
 .data          0x00800208        0x0 c:/program files/atmel/atmel toolchain/avr8 gcc/native/3.4.1051/avr8-gnu-toolchain/bin/../lib/gcc/avr/4.8.1/../../../../avr/lib/avr6\libc.a(isalpha.o)
 .data          0x00800208        0x0 c:/program files/atmel/atmel toolchain/avr8 gcc/native/3.4.1051/avr8-gnu-toolchain/bin/../lib/gcc/avr/4.8.1/../../../../avr/lib/avr6\libc.a(isxdigit.o)
 .data          0x00800208        0x0 c:/program files/atmel/atmel toolchain/avr8 gcc/native/3.4.1051/avr8-gnu-toolchain/bin/../lib/gcc/avr/4.8.1/../../../../avr/lib/avr6\libc.a(isprint.o)
 .data          0x00800208        0x0 c:/program files/atmel/atmel toolchain/avr8 gcc/native/3.4.1051/avr8-gnu-toolchain/bin/../lib/gcc/avr/4.8.1/../../../../avr/lib/avr6\libc.a(isspace.o)
 .data          0x00800208        0x0 c:/program files/atmel/atmel toolchain/avr8 gcc/native/3.4.1051/avr8-gnu-toolchain/bin/../lib/gcc/avr/4.8.1/../../../../avr/lib/avr6\libc.a(tolower.o)
 .data          0x00800208        0x0 c:/program files/atmel/atmel toolchain/avr8 gcc/native/3.4.1051/avr8-gnu-toolchain/bin/../lib/gcc/avr/4.8.1/../../../../avr/lib/avr6\libc.a(toupper.o)
 .data          0x00800208        0x0 c:/program files/atmel/atmel toolchain/avr8 gcc/native/3.4.1051/avr8-gnu-toolchain/bin/../lib/gcc/avr/4.8.1/../../../../avr/lib/avr6\libc.a(strcmp_P.o)
 .data          0x00800208        0x0 c:/program files/atmel/atmel toolchain/avr8 gcc/native/3.4.1051/avr8-gnu-toolchain/bin/../lib/gcc/avr/4.8.1/../../../../avr/lib/avr6\libc.a(strcpy_P.o)
 .data          0x00800208        0x0 c:/program files/atmel/atmel toolchain/avr8 gcc/native/3.4.1051/avr8-gnu-toolchain/bin/../lib/gcc/avr/4.8.1/../../../../avr/lib/avr6\libc.a(strlen_P.o)
 .data          0x00800208        0x0 c:/program files/atmel/atmel toolchain/avr8 gcc/native/3.4.1051/avr8-gnu-toolchain/bin/../lib/gcc/avr/4.8.1/../../../../avr/lib/avr6\libc.a(strncpy_P.o)
 .data          0x00800208        0x0 c:/program files/atmel/atmel toolchain/avr8 gcc/native/3.4.1051/avr8-gnu-toolchain/bin/../lib/gcc/avr/4.8.1/../../../../avr/lib/avr6\libc.a(strdup.o)
 .data          0x00800208        0x0 c:/program files/atmel/atmel toolchain/avr8 gcc/native/3.4.1051/avr8-gnu-toolchain/bin/../lib/gcc/avr/4.8.1/../../../../avr/lib/avr6\libc.a(memcmp.o)
 .data          0x00800208        0x0 c:/program files/atmel/atmel toolchain/avr8 gcc/native/3.4.1051/avr8-gnu-toolchain/bin/../lib/gcc/avr/4.8.1/../../../../avr/lib/avr6\libc.a(memcpy.o)
 .data          0x00800208        0x0 c:/program files/atmel/atmel toolchain/avr8 gcc/native/3.4.1051/avr8-gnu-toolchain/bin/../lib/gcc/avr/4.8.1/../../../../avr/lib/avr6\libc.a(memmove.o)
 .data          0x00800208        0x0 c:/program files/atmel/atmel toolchain/avr8 gcc/native/3.4.1051/avr8-gnu-toolchain/bin/../lib/gcc/avr/4.8.1/../../../../avr/lib/avr6\libc.a(memset.o)
 .data          0x00800208        0x0 c:/program files/atmel/atmel toolchain/avr8 gcc/native/3.4.1051/avr8-gnu-toolchain/bin/../lib/gcc/avr/4.8.1/../../../../avr/lib/avr6\libc.a(strchr.o)
 .data          0x00800208        0x0 c:/program files/atmel/atmel toolchain/avr8 gcc/native/3.4.1051/avr8-gnu-toolchain/bin/../lib/gcc/avr/4.8.1/../../../../avr/lib/avr6\libc.a(strcmp.o)
 .data          0x00800208        0x0 c:/program files/atmel/atmel toolchain/avr8 gcc/native/3.4.1051/avr8-gnu-toolchain/bin/../lib/gcc/avr/4.8.1/../../../../avr/lib/avr6\libc.a(strcpy.o)
 .data          0x00800208        0x0 c:/program files/atmel/atmel toolchain/avr8 gcc/native/3.4.1051/avr8-gnu-toolchain/bin/../lib/gcc/avr/4.8.1/../../../../avr/lib/avr6\libc.a(strncmp.o)
 .data          0x00800208        0x0 c:/program files/atmel/atmel toolchain/avr8 gcc/native/3.4.1051/avr8-gnu-toolchain/bin/../lib/gcc/avr/4.8.1/../../../../avr/lib/avr6\libc.a(strncpy.o)
 .data          0x00800208        0x0 c:/program files/atmel/atmel toolchain/avr8 gcc/native/3.4.1051/avr8-gnu-toolchain/bin/../lib/gcc/avr/4.8.1/../../../../avr/lib/avr6\libc.a(strrchr.o)
 .data          0x00800208        0x0 c:/program files/atmel/atmel toolchain/avr8 gcc/native/3.4.1051/avr8-gnu-toolchain/bin/../lib/gcc/avr/4.8.1/../../../../avr/lib/avr6\libc.a(strstr.o)
 .data          0x00800208        0x0 c:/program files/atmel/atmel toolchain/avr8 gcc/native/3.4.1051/avr8-gnu-toolchain/bin/../lib/gcc/avr/4.8.1/../../../../avr/lib/avr6\libc.a(itoa.o)
 .data          0x00800208        0x0 c:/program files/atmel/atmel toolchain/avr8 gcc/native/3.4.1051/avr8-gnu-toolchain/bin/../lib/gcc/avr/4.8.1/../../../../avr/lib/avr6\libc.a(itoa_ncheck.o)
 .data          0x00800208        0x0 c:/program files/atmel/atmel toolchain/avr8 gcc/native/3.4.1051/avr8-gnu-toolchain/bin/../lib/gcc/avr/4.8.1/../../../../avr/lib/avr6\libc.a(ltoa.o)
 .data          0x00800208        0x0 c:/program files/atmel/atmel toolchain/avr8 gcc/native/3.4.1051/avr8-gnu-toolchain/bin/../lib/gcc/avr/4.8.1/../../../../avr/lib/avr6\libc.a(ltoa_ncheck.o)
 .data          0x00800208        0x0 c:/program files/atmel/atmel toolchain/avr8 gcc/native/3.4.1051/avr8-gnu-toolchain/bin/../lib/gcc/avr/4.8.1/../../../../avr/lib/avr6\libc.a(mulsi10.o)
 .data          0x00800208        0x0 c:/program files/atmel/atmel toolchain/avr8 gcc/native/3.4.1051/avr8-gnu-toolchain/bin/../lib/gcc/avr/4.8.1/../../../../avr/lib/avr6\libc.a(mul10.o)
 .data          0x00800208        0x0 c:/program files/atmel/atmel toolchain/avr8 gcc/native/3.4.1051/avr8-gnu-toolchain/bin/../lib/gcc/avr/4.8.1/../../../../avr/lib/avr6\libc.a(ultoa.o)
 .data          0x00800208        0x0 c:/program files/atmel/atmel toolchain/avr8 gcc/native/3.4.1051/avr8-gnu-toolchain/bin/../lib/gcc/avr/4.8.1/../../../../avr/lib/avr6\libc.a(ultoa_ncheck.o)
 .data          0x00800208        0x0 c:/program files/atmel/atmel toolchain/avr8 gcc/native/3.4.1051/avr8-gnu-toolchain/bin/../lib/gcc/avr/4.8.1/../../../../avr/lib/avr6\libc.a(utoa.o)
 .data          0x00800208        0x0 c:/program files/atmel/atmel toolchain/avr8 gcc/native/3.4.1051/avr8-gnu-toolchain/bin/../lib/gcc/avr/4.8.1/../../../../avr/lib/avr6\libc.a(utoa_ncheck.o)
 .data          0x00800208        0x0 c:/program files/atmel/atmel toolchain/avr8 gcc/native/3.4.1051/avr8-gnu-toolchain/bin/../lib/gcc/avr/4.8.1/../../../../avr/lib/avr6\libc.a(snprintf.o)
 .data          0x00800208        0x0 c:/program files/atmel/atmel toolchain/avr8 gcc/native/3.4.1051/avr8-gnu-toolchain/bin/../lib/gcc/avr/4.8.1/../../../../avr/lib/avr6\libc.a(sprintf.o)
 .data          0x00800208        0x0 c:/program files/atmel/atmel toolchain/avr8 gcc/native/3.4.1051/avr8-gnu-toolchain/bin/../lib/gcc/avr/4.8.1/../../../../avr/lib/avr6\libc.a(vsnprintf.o)
 .data          0x00800208        0x0 c:/program files/atmel/atmel toolchain/avr8 gcc/native/3.4.1051/avr8-gnu-toolchain/bin/../lib/gcc/avr/4.8.1/../../../../avr/lib/avr6\libc.a(vfprintf_std.o)
 .data          0x00800208        0x0 c:/program files/atmel/atmel toolchain/avr8 gcc/native/3.4.1051/avr8-gnu-toolchain/bin/../lib/gcc/avr/4.8.1/../../../../avr/lib/avr6\libc.a(eerd_byte_atmega256rfr2.o)
 .data          0x00800208        0x0 c:/program files/atmel/atmel toolchain/avr8 gcc/native/3.4.1051/avr8-gnu-toolchain/bin/../lib/gcc/avr/4.8.1/../../../../avr/lib/avr6\libc.a(eerd_dword_atmega256rfr2.o)
 .data          0x00800208        0x0 c:/program files/atmel/atmel toolchain/avr8 gcc/native/3.4.1051/avr8-gnu-toolchain/bin/../lib/gcc/avr/4.8.1/../../../../avr/lib/avr6\libc.a(eerd_word_atmega256rfr2.o)
 .data          0x00800208        0x0 c:/program files/atmel/atmel toolchain/avr8 gcc/native/3.4.1051/avr8-gnu-toolchain/bin/../lib/gcc/avr/4.8.1/../../../../avr/lib/avr6\libc.a(eeupd_byte_atmega256rfr2.o)
 .data          0x00800208        0x0 c:/program files/atmel/atmel toolchain/avr8 gcc/native/3.4.1051/avr8-gnu-toolchain/bin/../lib/gcc/avr/4.8.1/../../../../avr/lib/avr6\libc.a(eeupd_word_atmega256rfr2.o)
 .data          0x00800208        0x0 c:/program files/atmel/atmel toolchain/avr8 gcc/native/3.4.1051/avr8-gnu-toolchain/bin/../lib/gcc/avr/4.8.1/../../../../avr/lib/avr6\libc.a(eewr_byte_atmega256rfr2.o)
 .data          0x00800208        0x0 c:/program files/atmel/atmel toolchain/avr8 gcc/native/3.4.1051/avr8-gnu-toolchain/bin/../lib/gcc/avr/4.8.1/../../../../avr/lib/avr6\libc.a(errno.o)
 .data          0x00800208        0x0 c:/program files/atmel/atmel toolchain/avr8 gcc/native/3.4.1051/avr8-gnu-toolchain/bin/../lib/gcc/avr/4.8.1/../../../../avr/lib/avr6\libc.a(dtoa_prf.o)
 .data          0x00800208        0x0 c:/program files/atmel/atmel toolchain/avr8 gcc/native/3.4.1051/avr8-gnu-toolchain/bin/../lib/gcc/avr/4.8.1/../../../../avr/lib/avr6\libc.a(strtod.o)
 .data          0x00800208        0x0 c:/program files/atmel/atmel toolchain/avr8 gcc/native/3.4.1051/avr8-gnu-toolchain/bin/../lib/gcc/avr/4.8.1/../../../../avr/lib/avr6\libc.a(ftoa_engine.o)
 .data          0x00800208        0x0 c:/program files/atmel/atmel toolchain/avr8 gcc/native/3.4.1051/avr8-gnu-toolchain/bin/../lib/gcc/avr/4.8.1/../../../../avr/lib/avr6\libc.a(strncasecmp_P.o)
 .data          0x00800208        0x0 c:/program files/atmel/atmel toolchain/avr8 gcc/native/3.4.1051/avr8-gnu-toolchain/bin/../lib/gcc/avr/4.8.1/../../../../avr/lib/avr6\libc.a(strnlen_P.o)
 .data          0x00800208        0x0 c:/program files/atmel/atmel toolchain/avr8 gcc/native/3.4.1051/avr8-gnu-toolchain/bin/../lib/gcc/avr/4.8.1/../../../../avr/lib/avr6\libc.a(strnlen.o)
 .data          0x00800208        0x0 c:/program files/atmel/atmel toolchain/avr8 gcc/native/3.4.1051/avr8-gnu-toolchain/bin/../lib/gcc/avr/4.8.1/../../../../avr/lib/avr6\libc.a(strrev.o)
 .data          0x00800208        0x0 c:/program files/atmel/atmel toolchain/avr8 gcc/native/3.4.1051/avr8-gnu-toolchain/bin/../lib/gcc/avr/4.8.1/../../../../avr/lib/avr6\libc.a(fputc.o)
 .data          0x00800208        0x0 c:/program files/atmel/atmel toolchain/avr8 gcc/native/3.4.1051/avr8-gnu-toolchain/bin/../lib/gcc/avr/4.8.1/../../../../avr/lib/avr6\libc.a(ultoa_invert.o)
 .data          0x00800208        0x0 c:/program files/atmel/atmel toolchain/avr8 gcc/native/3.4.1051/avr8-gnu-toolchain/bin/../lib/gcc/avr/4.8.1/../../../../avr/lib/avr6\libc.a(eerd_block_atmega256rfr2.o)
 .data          0x00800208        0x0 c:/program files/atmel/atmel toolchain/avr8 gcc/native/3.4.1051/avr8-gnu-toolchain/bin/../lib/gcc/avr/4.8.1/avr6\libgcc.a(_mulshisi3.o)
 *(.data*)
 .data._ZL9tone_pins
                0x00800208        0x1 libs/Tone.o
 .data.analog_reference
                0x00800209        0x1 libs/wiring_analog.o
                0x00800209                analog_reference
 .data.tokenhandlers
                0x0080020a       0x12 libs/bitlash.o
                0x0080020a                tokenhandlers
 .data._ZL13deadbeef_beef
                0x0080021c        0x4 libs/bitlash.o
 .data._ZL13deadbeef_seed
                0x00800220        0x4 libs/bitlash.o
 .data.goutf8_continue.1456
                0x00800224      0x200 libs/js0n.o
 .data.gobare.1448
                0x00800424      0x200 libs/js0n.o
 .data.goesc.1458
                0x00800624      0x200 libs/js0n.o
 .data.gostring.1450
                0x00800824      0x200 libs/js0n.o
 .data.gostruct.1441
                0x00800a24      0x200 libs/js0n.o
 .data._ZN4PBBP14error_code_strE
                0x00800c24       0x16 libs/PBBP.o
                0x00800c24                _ZN4PBBP14error_code_strE
 .data.__malloc_heap_end
                0x00800c3a        0x2 ../../../../pinoccio16mhz\libcore.a(malloc.c.o)
                0x00800c3a                __malloc_heap_end
 .data.__malloc_heap_start
                0x00800c3c        0x2 ../../../../pinoccio16mhz\libcore.a(malloc.c.o)
                0x00800c3c                __malloc_heap_start
 .data.__malloc_margin
                0x00800c3e        0x2 ../../../../pinoccio16mhz\libcore.a(malloc.c.o)
                0x00800c3e                __malloc_margin
 *(.rodata)
 .rodata        0x00800c40       0x10 libs/Pinoccio.o
 *(.rodata*)
 .rodata._ZTV14HardwareSerial
                0x00800c50       0x10 libs/HardwareSerial.o
                0x00800c50                _ZTV14HardwareSerial
 .rodata._ZTV9IPAddress
                0x00800c60        0x6 libs/IPAddress.o
                0x00800c60                _ZTV9IPAddress
 .rodata.str1.1
                0x00800c66        0xe libs/Print.o
 .rodata._ZTV7TwoWire
                0x00800c74       0x10 libs/Wire.o
                0x00800c74                _ZTV7TwoWire
 .rodata.str1.1
                0x00800c84       0x29 libs/bitlash.o
                                 0x2d (size before relaxing)
 .rodata.str1.1
                0x00800cad      0x25e libs/GSCore.o
                                0x265 (size before relaxing)
 .rodata.str1.1
                0x00800f0b      0x146 libs/GSModule.o
                                0x153 (size before relaxing)
 .rodata._ZTV11GSTcpClient
                0x00801051       0x20 libs/GSTcpClient.o
                0x00801051                _ZTV11GSTcpClient
 .rodata.str1.1
                0x00801071       0xd1 libs/Pbbe.o
 .rodata.str1.1
                0x00801142       0x8b libs/PBBP.o
                                 0x98 (size before relaxing)
 .rodata.str1.1
                0x008011cd       0x1e libs/Backpacks.o
 .rodata.str1.1
                0x008011eb      0x10d libs/WiFiBackpack.o
                                0x111 (size before relaxing)
 .rodata._ZN9HqHandler10cacert_lenE
                0x008012f8        0x2 libs/HqInfo.o
                0x008012f8                _ZN9HqHandler10cacert_lenE
 .rodata._ZN9HqHandler6cacertE
                0x008012fa      0x3e5 libs/HqInfo.o
                0x008012fa                _ZN9HqHandler6cacertE
 .rodata._ZN9HqHandler4portE
                0x008016df        0x2 libs/HqInfo.o
                0x008016df                _ZN9HqHandler4portE
 .rodata._ZN9HqHandler4hostE
                0x008016e1       0x14 libs/HqInfo.o
                0x008016e1                _ZN9HqHandler4hostE
 .rodata.str1.1
                0x008016f5      0x17a libs/key.o
 .rodata.CSWTCH.51
                0x0080186f        0x8 libs/Pinoccio.o
 .rodata.CSWTCH.48
                0x00801877       0x20 libs/Pinoccio.o
 .rodata.CSWTCH.17
                0x00801897       0x20 libs/Pinoccio.o
 .rodata.str1.1
                0x008018b7       0x13 libs/Scout.o
 .rodata.str1.1
                0x008018ca      0x179 libs/ScoutHandler.o
                                0x192 (size before relaxing)
 .rodata.str1.1
                0x00801a43      0x95d libs/Shell.o
                                0xa15 (size before relaxing)
 .rodata.str1.1
                0x008023a0       0x21 libs/memdebug.o
 .rodata.str1.1
                0x008023c1        0x7 libs/StringBuffer.o
                                  0x8 (size before relaxing)
 .rodata.str1.1
                0x008023c8       0x3c Bootstrap.o
 *(.gnu.linkonce.d*)
                0x00802404                . = ALIGN (0x2)
                0x00802404                _edata = .
                0x00802404                PROVIDE (__data_end, .)

.bss            0x00802404     0x16fd
                0x00802404                PROVIDE (__bss_start, .)
 *(.bss)
 *(.bss*)
 .bss.Serial    0x00802404       0x9d libs/HardwareSerial0.o
                0x00802404                Serial
 .bss.Serial1   0x008024a1       0x9d libs/HardwareSerial1.o
                0x008024a1                Serial1
 .bss._ZL11INADDR_NONE
                0x0080253e        0x6 libs/IPAddress.o
 .bss.timer2_pin_mask
                0x00802544        0x1 libs/Tone.o
                0x00802544                timer2_pin_mask
 .bss.timer2_pin_port
                0x00802545        0x2 libs/Tone.o
                0x00802545                timer2_pin_port
 .bss.timer2_toggle_count
                0x00802547        0x4 libs/Tone.o
                0x00802547                timer2_toggle_count
 .bss.intFunc   0x0080254b        0x4 libs/WInterrupts.o
 .bss.timer0_fract
                0x0080254f        0x1 libs/wiring.o
 .bss.timer0_millis
                0x00802550        0x4 libs/wiring.o
                0x00802550                timer0_millis
 .bss.timer0_overflow_count
                0x00802554        0x4 libs/wiring.o
                0x00802554                timer0_overflow_count
 .bss._ZZN6StringixEjE19dummy_writable_char
                0x00802558        0x1 libs/WString.o
 .bss.twi_error
                0x00802559        0x1 libs/twi.o
 .bss.twi_rxBufferIndex
                0x0080255a        0x1 libs/twi.o
 .bss.twi_rxBuffer
                0x0080255b       0x20 libs/twi.o
 .bss.twi_txBufferLength
                0x0080257b        0x1 libs/twi.o
 .bss.twi_txBufferIndex
                0x0080257c        0x1 libs/twi.o
 .bss.twi_txBuffer
                0x0080257d       0x20 libs/twi.o
 .bss.twi_masterBufferLength
                0x0080259d        0x1 libs/twi.o
 .bss.twi_masterBufferIndex
                0x0080259e        0x1 libs/twi.o
 .bss.twi_masterBuffer
                0x0080259f       0x20 libs/twi.o
 .bss.twi_onSlaveReceive
                0x008025bf        0x2 libs/twi.o
 .bss.twi_onSlaveTransmit
                0x008025c1        0x2 libs/twi.o
 .bss.twi_inRepStart
                0x008025c3        0x1 libs/twi.o
 .bss.twi_sendStop
                0x008025c4        0x1 libs/twi.o
 .bss.twi_slarw
                0x008025c5        0x1 libs/twi.o
 .bss.twi_state
                0x008025c6        0x1 libs/twi.o
 .bss.Wire      0x008025c7        0xc libs/Wire.o
                0x008025c7                Wire
 .bss._ZN7TwoWire12transmittingE
                0x008025d3        0x1 libs/Wire.o
                0x008025d3                _ZN7TwoWire12transmittingE
 .bss._ZN7TwoWire14txBufferLengthE
                0x008025d4        0x1 libs/Wire.o
                0x008025d4                _ZN7TwoWire14txBufferLengthE
 .bss._ZN7TwoWire13txBufferIndexE
                0x008025d5        0x1 libs/Wire.o
                0x008025d5                _ZN7TwoWire13txBufferIndexE
 .bss._ZN7TwoWire8txBufferE
                0x008025d6       0x20 libs/Wire.o
                0x008025d6                _ZN7TwoWire8txBufferE
 .bss._ZN7TwoWire14rxBufferLengthE
                0x008025f6        0x1 libs/Wire.o
                0x008025f6                _ZN7TwoWire14rxBufferLengthE
 .bss._ZN7TwoWire13rxBufferIndexE
                0x008025f7        0x1 libs/Wire.o
                0x008025f7                _ZN7TwoWire13rxBufferIndexE
 .bss._ZN7TwoWire8rxBufferE
                0x008025f8       0x20 libs/Wire.o
                0x008025f8                _ZN7TwoWire8rxBufferE
 .bss.env       0x00802618       0x18 libs/bitlash.o
                0x00802618                env
 .bss.waketime  0x00802630       0x28 libs/bitlash.o
                0x00802630                waketime
 .bss.snoozetime
                0x00802658       0x28 libs/bitlash.o
                0x00802658                snoozetime
 .bss.tasklist  0x00802680       0x14 libs/bitlash.o
                0x00802680                tasklist
 .bss.curtask   0x00802694        0x1 libs/bitlash.o
                0x00802694                curtask
 .bss.suspendBackground
                0x00802695        0x1 libs/bitlash.o
                0x00802695                suspendBackground
 .bss.background
                0x00802696        0x1 libs/bitlash.o
                0x00802696                background
 .bss.serial_override_handler
                0x00802697        0x2 libs/bitlash.o
                0x00802697                serial_override_handler
 .bss.bittime   0x00802699       0x40 libs/bitlash.o
                0x00802699                bittime
 .bss.outpin    0x008026d9        0x1 libs/bitlash.o
                0x008026d9                outpin
 .bss.vars      0x008026da       0x68 libs/bitlash.o
                0x008026da                vars
 .bss.stringPool
                0x00802742        0x2 libs/bitlash.o
                0x00802742                stringPool
 .bss.vstack    0x00802744      0x400 libs/bitlash.o
                0x00802744                vstack
 .bss.arg       0x00802b44        0x2 libs/bitlash.o
                0x00802b44                arg
 .bss.vsptr     0x00802b46        0x1 libs/bitlash.o
                0x00802b46                vsptr
 .bss.trace     0x00802b47        0x1 libs/bitlash.o
                0x00802b47                trace
 .bss.idbuf     0x00802b48       0x19 libs/bitlash.o
                0x00802b48                idbuf
 .bss.expval    0x00802b61        0x4 libs/bitlash.o
                0x00802b61                expval
 .bss.exptype   0x00802b65        0x1 libs/bitlash.o
                0x00802b65                exptype
 .bss.symval    0x00802b66        0x4 libs/bitlash.o
                0x00802b66                symval
 .bss.fetchptr  0x00802b6a        0x4 libs/bitlash.o
                0x00802b6a                fetchptr
 .bss.fetchtype
                0x00802b6e        0x1 libs/bitlash.o
                0x00802b6e                fetchtype
 .bss.user_functions
                0x00802b6f      0x258 libs/bitlash.o
                0x00802b6f                user_functions
 .bss.bf_install_count
                0x00802dc7        0x1 libs/bitlash.o
                0x00802dc7                bf_install_count
 .bss.lbuf      0x00802dc8      0x200 libs/bitlash.o
                0x00802dc8                lbuf
 .bss.lbufptr   0x00802fc8        0x2 libs/bitlash.o
                0x00802fc8                lbufptr
 .bss._ZL11INADDR_NONE
                0x00802fca        0x6 libs/GSClient.o
 .bss._ZL11INADDR_NONE
                0x00802fd0        0x6 libs/GSCore.o
 .bss._ZL11INADDR_NONE
                0x00802fd6        0x6 libs/GSModule.o
 .bss._ZL11INADDR_NONE
                0x00802fdc        0x6 libs/GSTcpClient.o
 .bss._ZL11INADDR_NONE
                0x00802fe2        0x6 libs/GSUdpClient.o
 .bss._ZL11INADDR_NONE
                0x00802fe8        0x6 libs/GSUdpServer.o
 .bss.nwkDataReqQueue
                0x00802fee        0x2 libs/nwkDataReq.o
 .bss.nwkFrameFrames
                0x00802ff0      0x2ad libs/nwkFrame.o
 .bss.nwkGroups
                0x0080329d       0x28 libs/nwkGroup.o
 .bss.nwkRouteTable
                0x008032c5       0x8c libs/nwkRoute.o
 .bss.nwkRouteDiscoveryTimer
                0x00803351        0xd libs/nwkRouteDiscovery.o
 .bss.nwkRouteDiscoveryTable
                0x0080335e       0x37 libs/nwkRouteDiscovery.o
 .bss.nwkRxDuplicateRejectionTimer
                0x00803395        0xd libs/nwkRx.o
 .bss.nwkRxAckControl
                0x008033a2        0x1 libs/nwkRx.o
 .bss.nwkRxDuplicateRejectionTable
                0x008033a3       0xfa libs/nwkRx.o
 .bss.nwkSecurityVector
                0x0080349d       0x10 libs/nwkSecurity.o
 .bss.nwkSecurityEncrypt
                0x008034ad        0x1 libs/nwkSecurity.o
 .bss.nwkSecurityOffset
                0x008034ae        0x1 libs/nwkSecurity.o
 .bss.nwkSecuritySize
                0x008034af        0x1 libs/nwkSecurity.o
 .bss.nwkSecurityActiveFrame
                0x008034b0        0x2 libs/nwkSecurity.o
 .bss.nwkSecurityActiveFrames
                0x008034b2        0x1 libs/nwkSecurity.o
 .bss.nwkTxDelayTimer
                0x008034b3        0xd libs/nwkTx.o
 .bss.nwkTxAckWaitTimer
                0x008034c0        0xd libs/nwkTx.o
 .bss.nwkTxPhyActiveFrame
                0x008034cd        0x2 libs/nwkTx.o
 .bss.phyBand   0x008034cf        0x1 libs/phy.o
 .bss.phyChannel
                0x008034d0        0x1 libs/phy.o
 .bss.phyRxState
                0x008034d1        0x1 libs/phy.o
 .bss.phyRxBuffer
                0x008034d2       0x80 libs/phy.o
 .bss.phyState  0x00803552        0x1 libs/phy.o
 .bss.prev.2108
                0x00803553        0x1 libs/sysTimer.o
 .bss.timers    0x00803554        0x2 libs/sysTimer.o
 .bss._ZL11INADDR_NONE
                0x00803556        0x6 libs/Backpack.o
 .bss._ZN9Backpacks9used_pinsE
                0x0080355c        0x4 libs/Backpacks.o
                0x0080355c                _ZN9Backpacks9used_pinsE
 .bss._ZN9Backpacks4pbbpE
                0x00803560        0xb libs/Backpacks.o
                0x00803560                _ZN9Backpacks4pbbpE
 .bss._ZN9Backpacks4infoE
                0x0080356b        0x2 libs/Backpacks.o
                0x0080356b                _ZN9Backpacks4infoE
 .bss._ZN9Backpacks13num_backpacksE
                0x0080356d        0x1 libs/Backpacks.o
                0x0080356d                _ZN9Backpacks13num_backpacksE
 .bss._ZL11INADDR_NONE
                0x0080356e        0x6 libs/WiFiBackpack.o
 .bss.keytableLast
                0x00803574        0x4 libs/key.o
                0x00803574                keytableLast
 .bss.RgbLed    0x00803578       0x22 libs/halRgbLed.o
                0x00803578                RgbLed
 .bss._ZL11INADDR_NONE
                0x0080359a        0x6 libs/halRgbLed.o
 .bss.Scout     0x008035a0      0x376 libs/Scout.o
                0x008035a0                Scout
 .bss._ZL11INADDR_NONE
                0x00803916        0x6 libs/Scout.o
 .bss.leadCommandOutput
                0x0080391c        0x8 libs/ScoutHandler.o
                0x0080391c                leadCommandOutput
 .bss._ZL10hqIncoming
                0x00803924        0x8 libs/ScoutHandler.o
 .bss._ZL12leadAnswerID
                0x0080392c        0x2 libs/ScoutHandler.o
 .bss._ZL14leadCommandReq
                0x0080392e       0x13 libs/ScoutHandler.o
 .bss._ZL18leadCommandRetries
                0x00803941        0x2 libs/ScoutHandler.o
 .bss._ZL19leadCommandChunksAt
                0x00803943        0x2 libs/ScoutHandler.o
 .bss.leadCommandChunks
                0x00803945        0x8 libs/ScoutHandler.o
                0x00803945                leadCommandChunks
 .bss._ZL13leadCommandTo
                0x0080394d        0x2 libs/ScoutHandler.o
 .bss._ZL11announceReq
                0x0080394f       0x13 libs/ScoutHandler.o
 .bss._ZL10announceQG
                0x00803962       0x14 libs/ScoutHandler.o
 .bss._ZL9announceQ
                0x00803976       0x14 libs/ScoutHandler.o
 .bss.fieldCommandOutput
                0x0080398a        0x8 libs/ScoutHandler.o
                0x0080398a                fieldCommandOutput
 .bss._ZL14fieldAnswerReq
                0x00803992       0x13 libs/ScoutHandler.o
 .bss._ZL18fieldAnswerRetries
                0x008039a5        0x2 libs/ScoutHandler.o
 .bss._ZL19fieldAnswerChunksAt
                0x008039a7        0x2 libs/ScoutHandler.o
 .bss._ZL13fieldAnswerTo
                0x008039a9        0x2 libs/ScoutHandler.o
 .bss._ZL12fieldCommand
                0x008039ab        0x8 libs/ScoutHandler.o
 .bss._ZL15hqVerboseOutput
                0x008039b3        0x1 libs/ScoutHandler.o
 .bss._ZL11INADDR_NONE
                0x008039b4        0x6 libs/ScoutHandler.o
 .bss._ZZL6keyMapvE3num
                0x008039ba        0x8 libs/Shell.o
 .bss.delayCommand
                0x008039c2        0x2 libs/Shell.o
                0x008039c2                delayCommand
 .bss.delayTimer
                0x008039c4        0xd libs/Shell.o
                0x008039c4                delayTimer
 .bss._ZL7tempLow
                0x008039d1        0x2 libs/Shell.o
 .bss._ZL8tempHigh
                0x008039d3        0x2 libs/Shell.o
 .bss._ZL15sendDataReqBusy
                0x008039d5        0x1 libs/Shell.o
 .bss._ZL11sendDataReq
                0x008039d6       0x13 libs/Shell.o
 .bss._ZL11lastMeshLqi
                0x008039e9        0x2 libs/Shell.o
 .bss._ZL12lastMeshRssi
                0x008039eb        0x2 libs/Shell.o
 .bss._ZL13isMeshVerbose
                0x008039ed        0x1 libs/Shell.o
 .bss.Shell     0x008039ee        0x3 libs/Shell.o
                0x008039ee                Shell
 .bss._ZL11INADDR_NONE
                0x008039f1        0x6 libs/Shell.o
 .bss._ZL11INADDR_NONE
                0x008039f7        0x6 libs/StringBuffer.o
 .bss._ZL11INADDR_NONE
                0x008039fd        0x6 Bootstrap.o
 *(COMMON)
 COMMON         0x00803a03       0x38 libs/nwk.o
                0x00803a03                nwkIb
 COMMON         0x00803a3b       0xc0 libs/key.o
                0x00803a3b                keytableTmp
                0x00803a7b                keytable
 COMMON         0x00803afb        0x4 ../../../../pinoccio16mhz\libcore.a(malloc.c.o)
                0x00803afb                __brkval
                0x00803afd                __flp
 COMMON         0x00803aff        0x2 c:/program files/atmel/atmel toolchain/avr8 gcc/native/3.4.1051/avr8-gnu-toolchain/bin/../lib/gcc/avr/4.8.1/../../../../avr/lib/avr6\libc.a(errno.o)
                0x00803aff                errno
                0x00803b01                PROVIDE (__bss_end, .)
                0x00017380                __data_load_start = LOADADDR (.data)
                0x00019584                __data_load_end = (__data_load_start + SIZEOF (.data))

.noinit         0x00803b01        0x0
                0x00803b01                PROVIDE (__noinit_start, .)
 *(.noinit*)
                0x00803b01                PROVIDE (__noinit_end, .)
                0x00803b01                _end = .
                0x00803b01                PROVIDE (__heap_start, .)

.eeprom         0x00810000        0x0
 *(.eeprom*)
                0x00810000                __eeprom_end = .

.fuse
 *(.fuse)
 *(.lfuse)
 *(.hfuse)
 *(.efuse)

.lock
 *(.lock*)

.signature
 *(.signature*)

.user_signatures
 *(.user_signatures*)

.stab
 *(.stab)

.stabstr
 *(.stabstr)

.stab.excl
 *(.stab.excl)

.stab.exclstr
 *(.stab.exclstr)

.stab.index
 *(.stab.index)

.stab.indexstr
 *(.stab.indexstr)

.comment        0x00000000       0x6d
 *(.comment)
 .comment       0x00000000       0x30 libs/CDC.o
                                 0x31 (size before relaxing)
 .comment       0x00000000       0x31 libs/HardwareSerial.o
 .comment       0x00000000       0x31 libs/HardwareSerial0.o
 .comment       0x00000000       0x31 libs/HardwareSerial1.o
 .comment       0x00000000       0x31 libs/HardwareSerial2.o
 .comment       0x00000000       0x31 libs/HardwareSerial3.o
 .comment       0x00000000       0x31 libs/HID.o
 .comment       0x00000000       0x31 libs/hooks.o
 .comment       0x00000000       0x31 libs/IPAddress.o
 .comment       0x00000000       0x31 libs/main.o
 .comment       0x00000000       0x31 libs/new.o
 .comment       0x00000000       0x31 libs/Print.o
 .comment       0x00000000       0x31 libs/Stream.o
 .comment       0x00000000       0x31 libs/Tone.o
 .comment       0x00000000       0x31 libs/USBCore.o
 .comment       0x00000000       0x31 libs/WInterrupts.o
 .comment       0x00000000       0x31 libs/wiring.o
 .comment       0x00000000       0x31 libs/wiring_analog.o
 .comment       0x00000000       0x31 libs/wiring_digital.o
 .comment       0x00000000       0x31 libs/wiring_pulse.o
 .comment       0x00000000       0x31 libs/wiring_shift.o
 .comment       0x00000000       0x31 libs/WMath.o
 .comment       0x00000000       0x31 libs/WString.o
 .comment       0x00000000       0x31 libs/SPI.o
 .comment       0x00000000       0x31 libs/twi.o
 .comment       0x00000000       0x31 libs/Wire.o
 .comment       0x00000000       0x31 libs/bitlash.o
 .comment       0x00000000       0x31 libs/GSClient.o
 .comment       0x00000000       0x31 libs/GSCore.o
 .comment       0x00000000       0x31 libs/GSModule.o
 .comment       0x00000000       0x31 libs/GSTcpClient.o
 .comment       0x00000000       0x31 libs/GSUdpClient.o
 .comment       0x00000000       0x31 libs/GSUdpServer.o
 .comment       0x00000000       0x31 libs/j0g.o
 .comment       0x00000000       0x31 libs/js0n.o
 .comment       0x00000000       0x31 libs/nwk.o
 .comment       0x00000000       0x31 libs/nwkDataReq.o
 .comment       0x00000000       0x31 libs/nwkFrame.o
 .comment       0x00000000       0x31 libs/nwkGroup.o
 .comment       0x00000000       0x31 libs/nwkRoute.o
 .comment       0x00000000       0x31 libs/nwkRouteDiscovery.o
 .comment       0x00000000       0x31 libs/nwkRx.o
 .comment       0x00000000       0x31 libs/nwkSecurity.o
 .comment       0x00000000       0x31 libs/nwkTx.o
 .comment       0x00000000       0x31 libs/phy.o
 .comment       0x00000000       0x31 libs/sys.o
 .comment       0x00000000       0x31 libs/sysEncrypt.o
 .comment       0x00000000       0x31 libs/sysTimer.o
 .comment       0x00000000       0x31 libs/Pbbe.o
 .comment       0x00000000       0x31 libs/PBBP.o
 .comment       0x00000000       0x31 libs/Backpack.o
 .comment       0x00000000       0x31 libs/Backpacks.o
 .comment       0x00000000       0x31 libs/WiFiBackpack.o
 .comment       0x00000000       0x31 libs/HqInfo.o
 .comment       0x00000000       0x31 libs/key.o
 .comment       0x00000000       0x31 libs/Flash.o
 .comment       0x00000000       0x31 libs/halFuelGauge.o
 .comment       0x00000000       0x31 libs/halRgbLed.o
 .comment       0x00000000       0x31 libs/halTemperature.o
 .comment       0x00000000       0x31 libs/Pinoccio.o
 .comment       0x00000000       0x31 libs/Scout.o
 .comment       0x00000000       0x31 libs/ScoutHandler.o
 .comment       0x00000000       0x31 libs/Shell.o
 .comment       0x00000000       0x31 libs/memdebug.o
 .comment       0x00000000       0x31 libs/StringBuffer.o
 .comment       0x00000000       0x31 Bootstrap.o
 .comment       0x00000030       0x11 ../../../../pinoccio16mhz\libcore.a(malloc.c.o)
                                 0x12 (size before relaxing)
 .comment       0x00000000       0x12 ../../../../pinoccio16mhz\libcore.a(realloc.c.o)
 .comment       0x00000000       0x31 c:/program files/atmel/atmel toolchain/avr8 gcc/native/3.4.1051/avr8-gnu-toolchain/bin/../lib/gcc/avr/4.8.1/../../../../avr/lib/avr6\libc.a(dtostrf.o)
 .comment       0x00000000       0x31 c:/program files/atmel/atmel toolchain/avr8 gcc/native/3.4.1051/avr8-gnu-toolchain/bin/../lib/gcc/avr/4.8.1/../../../../avr/lib/avr6\libc.a(rand.o)
 .comment       0x00000000       0x31 c:/program files/atmel/atmel toolchain/avr8 gcc/native/3.4.1051/avr8-gnu-toolchain/bin/../lib/gcc/avr/4.8.1/../../../../avr/lib/avr6\libc.a(random.o)
 .comment       0x00000000       0x31 c:/program files/atmel/atmel toolchain/avr8 gcc/native/3.4.1051/avr8-gnu-toolchain/bin/../lib/gcc/avr/4.8.1/../../../../avr/lib/avr6\libc.a(strtoul.o)
 .comment       0x00000000       0x31 c:/program files/atmel/atmel toolchain/avr8 gcc/native/3.4.1051/avr8-gnu-toolchain/bin/../lib/gcc/avr/4.8.1/../../../../avr/lib/avr6\libc.a(strdup.o)
 .comment       0x00000000       0x31 c:/program files/atmel/atmel toolchain/avr8 gcc/native/3.4.1051/avr8-gnu-toolchain/bin/../lib/gcc/avr/4.8.1/../../../../avr/lib/avr6\libc.a(snprintf.o)
 .comment       0x00000000       0x31 c:/program files/atmel/atmel toolchain/avr8 gcc/native/3.4.1051/avr8-gnu-toolchain/bin/../lib/gcc/avr/4.8.1/../../../../avr/lib/avr6\libc.a(sprintf.o)
 .comment       0x00000000       0x31 c:/program files/atmel/atmel toolchain/avr8 gcc/native/3.4.1051/avr8-gnu-toolchain/bin/../lib/gcc/avr/4.8.1/../../../../avr/lib/avr6\libc.a(vsnprintf.o)
 .comment       0x00000041       0x2c c:/program files/atmel/atmel toolchain/avr8 gcc/native/3.4.1051/avr8-gnu-toolchain/bin/../lib/gcc/avr/4.8.1/../../../../avr/lib/avr6\libc.a(vfprintf_std.o)
                                 0x2d (size before relaxing)
 .comment       0x00000000       0x2d c:/program files/atmel/atmel toolchain/avr8 gcc/native/3.4.1051/avr8-gnu-toolchain/bin/../lib/gcc/avr/4.8.1/../../../../avr/lib/avr6\libc.a(errno.o)
 .comment       0x00000000       0x31 c:/program files/atmel/atmel toolchain/avr8 gcc/native/3.4.1051/avr8-gnu-toolchain/bin/../lib/gcc/avr/4.8.1/../../../../avr/lib/avr6\libc.a(dtoa_prf.o)
 .comment       0x00000000       0x31 c:/program files/atmel/atmel toolchain/avr8 gcc/native/3.4.1051/avr8-gnu-toolchain/bin/../lib/gcc/avr/4.8.1/../../../../avr/lib/avr6\libc.a(strtod.o)
 .comment       0x00000000       0x31 c:/program files/atmel/atmel toolchain/avr8 gcc/native/3.4.1051/avr8-gnu-toolchain/bin/../lib/gcc/avr/4.8.1/../../../../avr/lib/avr6\libc.a(fputc.o)

.note.gnu.build-id
 *(.note.gnu.build-id)

.debug
 *(.debug)

.line
 *(.line)

.debug_srcinfo
 *(.debug_srcinfo)

.debug_sfnames
 *(.debug_sfnames)

.debug_aranges  0x00000000     0x26a8
 *(.debug_aranges)
 .debug_aranges
                0x00000000       0x18 libs/CDC.o
 .debug_aranges
                0x00000018       0x60 libs/HardwareSerial.o
 .debug_aranges
                0x00000078       0x38 libs/HardwareSerial0.o
 .debug_aranges
                0x000000b0       0x38 libs/HardwareSerial1.o
 .debug_aranges
                0x000000e8       0x18 libs/HardwareSerial2.o
 .debug_aranges
                0x00000100       0x18 libs/HardwareSerial3.o
 .debug_aranges
                0x00000118       0x18 libs/HID.o
 .debug_aranges
                0x00000130       0x20 libs/hooks.o
 .debug_aranges
                0x00000150       0x60 libs/IPAddress.o
 .debug_aranges
                0x000001b0       0x20 libs/main.o
 .debug_aranges
                0x000001d0       0x58 libs/new.o
 .debug_aranges
                0x00000228       0xf0 libs/Print.o
 .debug_aranges
                0x00000318       0x98 libs/Stream.o
 .debug_aranges
                0x000003b0       0x38 libs/Tone.o
 .debug_aranges
                0x000003e8       0x18 libs/USBCore.o
 .debug_aranges
                0x00000400       0x68 libs/WInterrupts.o
 .debug_aranges
                0x00000468       0x48 libs/wiring.o
 .debug_aranges
                0x000004b0       0x30 libs/wiring_analog.o
 .debug_aranges
                0x000004e0       0x38 libs/wiring_digital.o
 .debug_aranges
                0x00000518       0x20 libs/wiring_pulse.o
 .debug_aranges
                0x00000538       0x28 libs/wiring_shift.o
 .debug_aranges
                0x00000560       0x48 libs/WMath.o
 .debug_aranges
                0x000005a8      0x2a0 libs/WString.o
 .debug_aranges
                0x00000848       0x40 libs/SPI.o
 .debug_aranges
                0x00000888       0x70 libs/twi.o
 .debug_aranges
                0x000008f8       0xd0 libs/Wire.o
 .debug_aranges
                0x000009c8      0x588 libs/bitlash.o
 .debug_aranges
                0x00000f50       0x78 libs/GSClient.o
 .debug_aranges
                0x00000fc8      0x198 libs/GSCore.o
 .debug_aranges
                0x00001160       0xb8 libs/GSModule.o
 .debug_aranges
                0x00001218       0x40 libs/GSTcpClient.o
 .debug_aranges
                0x00001258       0x30 libs/GSUdpClient.o
 .debug_aranges
                0x00001288       0xa0 libs/GSUdpServer.o
 .debug_aranges
                0x00001328       0x40 libs/j0g.o
 .debug_aranges
                0x00001368       0x20 libs/js0n.o
 .debug_aranges
                0x00001388       0x70 libs/nwk.o
 .debug_aranges
                0x000013f8       0x38 libs/nwkDataReq.o
 .debug_aranges
                0x00001430       0x40 libs/nwkFrame.o
 .debug_aranges
                0x00001470       0x40 libs/nwkGroup.o
 .debug_aranges
                0x000014b0       0x80 libs/nwkRoute.o
 .debug_aranges
                0x00001530       0x60 libs/nwkRouteDiscovery.o
 .debug_aranges
                0x00001590       0x50 libs/nwkRx.o
 .debug_aranges
                0x000015e0       0x40 libs/nwkSecurity.o
 .debug_aranges
                0x00001620       0x68 libs/nwkTx.o
 .debug_aranges
                0x00001688       0x98 libs/phy.o
 .debug_aranges
                0x00001720       0x28 libs/sys.o
 .debug_aranges
                0x00001748       0x20 libs/sysEncrypt.o
 .debug_aranges
                0x00001768       0x48 libs/sysTimer.o
 .debug_aranges
                0x000017b0       0x88 libs/Pbbe.o
 .debug_aranges
                0x00001838       0xa8 libs/PBBP.o
 .debug_aranges
                0x000018e0       0x40 libs/Backpack.o
 .debug_aranges
                0x00001920       0x90 libs/Backpacks.o
 .debug_aranges
                0x000019b0       0xe8 libs/WiFiBackpack.o
 .debug_aranges
                0x00001a98       0x18 libs/HqInfo.o
 .debug_aranges
                0x00001ab0       0x48 libs/key.o
 .debug_aranges
                0x00001af8       0x88 libs/Flash.o
 .debug_aranges
                0x00001b80       0x58 libs/halFuelGauge.o
 .debug_aranges
                0x00001bd8      0x170 libs/halRgbLed.o
 .debug_aranges
                0x00001d48       0x20 libs/halTemperature.o
 .debug_aranges
                0x00001d68      0x158 libs/Pinoccio.o
 .debug_aranges
                0x00001ec0      0x150 libs/Scout.o
 .debug_aranges
                0x00002010       0xe8 libs/ScoutHandler.o
 .debug_aranges
                0x000020f8      0x470 libs/Shell.o
 .debug_aranges
                0x00002568       0x58 libs/memdebug.o
 .debug_aranges
                0x000025c0       0x50 libs/StringBuffer.o
 .debug_aranges
                0x00002610       0x50 Bootstrap.o
 .debug_aranges
                0x00002660       0x28 ../../../../pinoccio16mhz\libcore.a(malloc.c.o)
 .debug_aranges
                0x00002688       0x20 ../../../../pinoccio16mhz\libcore.a(realloc.c.o)

.debug_pubnames
 *(.debug_pubnames)

.debug_info     0x00000000    0x6a469
 *(.debug_info .gnu.linkonce.wi.*)
 .debug_info    0x00000000       0x79 libs/CDC.o
 .debug_info    0x00000079     0x1958 libs/HardwareSerial.o
 .debug_info    0x000019d1     0x15c3 libs/HardwareSerial0.o
 .debug_info    0x00002f94     0x15c3 libs/HardwareSerial1.o
 .debug_info    0x00004557       0x72 libs/HardwareSerial2.o
 .debug_info    0x000045c9       0x72 libs/HardwareSerial3.o
 .debug_info    0x0000463b       0x79 libs/HID.o
 .debug_info    0x000046b4       0x3e libs/hooks.o
 .debug_info    0x000046f2      0x8af libs/IPAddress.o
 .debug_info    0x00004fa1       0xe8 libs/main.o
 .debug_info    0x00005089      0x234 libs/new.o
 .debug_info    0x000052bd     0x25e7 libs/Print.o
 .debug_info    0x000078a4     0x1ba2 libs/Stream.o
 .debug_info    0x00009446      0x938 libs/Tone.o
 .debug_info    0x00009d7e       0x79 libs/USBCore.o
 .debug_info    0x00009df7      0x1df libs/WInterrupts.o
 .debug_info    0x00009fd6      0x210 libs/wiring.o
 .debug_info    0x0000a1e6      0x22a libs/wiring_analog.o
 .debug_info    0x0000a410      0x52b libs/wiring_digital.o
 .debug_info    0x0000a93b      0x246 libs/wiring_pulse.o
 .debug_info    0x0000ab81      0x21a libs/wiring_shift.o
 .debug_info    0x0000ad9b      0x22f libs/WMath.o
 .debug_info    0x0000afca     0x3ee7 libs/WString.o
 .debug_info    0x0000eeb1      0x26f libs/SPI.o
 .debug_info    0x0000f120      0x60e libs/twi.o
 .debug_info    0x0000f72e     0x2117 libs/Wire.o
 .debug_info    0x00011845     0x66a4 libs/bitlash.o
 .debug_info    0x00017ee9     0x2e7f libs/GSClient.o
 .debug_info    0x0001ad68     0x4dbb libs/GSCore.o
 .debug_info    0x0001fb23     0x33f0 libs/GSModule.o
 .debug_info    0x00022f13     0x29e2 libs/GSTcpClient.o
 .debug_info    0x000258f5     0x2884 libs/GSUdpClient.o
 .debug_info    0x00028179     0x35f7 libs/GSUdpServer.o
 .debug_info    0x0002b770      0x417 libs/j0g.o
 .debug_info    0x0002bb87      0x227 libs/js0n.o
 .debug_info    0x0002bdae      0x52e libs/nwk.o
 .debug_info    0x0002c2dc      0x868 libs/nwkDataReq.o
 .debug_info    0x0002cb44      0x593 libs/nwkFrame.o
 .debug_info    0x0002d0d7      0x230 libs/nwkGroup.o
 .debug_info    0x0002d307      0xab3 libs/nwkRoute.o
 .debug_info    0x0002ddba      0xd78 libs/nwkRouteDiscovery.o
 .debug_info    0x0002eb32      0xe59 libs/nwkRx.o
 .debug_info    0x0002f98b      0x765 libs/nwkSecurity.o
 .debug_info    0x000300f0      0xae4 libs/nwkTx.o
 .debug_info    0x00030bd4      0x969 libs/phy.o
 .debug_info    0x0003153d      0x122 libs/sys.o
 .debug_info    0x0003165f       0xfe libs/sysEncrypt.o
 .debug_info    0x0003175d      0x347 libs/sysTimer.o
 .debug_info    0x00031aa4     0x25fa libs/Pbbe.o
 .debug_info    0x0003409e     0x1435 libs/PBBP.o
 .debug_info    0x000354d3      0x2a3 libs/Backpack.o
 .debug_info    0x00035776     0x1ec6 libs/Backpacks.o
 .debug_info    0x0003763c     0x4283 libs/WiFiBackpack.o
 .debug_info    0x0003b8bf      0x11f libs/HqInfo.o
 .debug_info    0x0003b9de      0x447 libs/key.o
 .debug_info    0x0003be25      0xe7a libs/Flash.o
 .debug_info    0x0003cc9f      0x1c4 libs/halFuelGauge.o
 .debug_info    0x0003ce63     0x5e08 libs/halRgbLed.o
 .debug_info    0x00042c6b       0xe9 libs/halTemperature.o
 .debug_info    0x00042d54     0x1796 libs/Pinoccio.o
 .debug_info    0x000444ea     0x7521 libs/Scout.o
 .debug_info    0x0004ba0b     0x71f4 libs/ScoutHandler.o
 .debug_info    0x00052bff    0x113d3 libs/Shell.o
 .debug_info    0x00063fd2      0x3af libs/memdebug.o
 .debug_info    0x00064381     0x16de libs/StringBuffer.o
 .debug_info    0x00065a5f     0x453f Bootstrap.o
 .debug_info    0x00069f9e      0x23f ../../../../pinoccio16mhz\libcore.a(malloc.c.o)
 .debug_info    0x0006a1dd      0x28c ../../../../pinoccio16mhz\libcore.a(realloc.c.o)

.debug_abbrev   0x00000000     0xdc27
 *(.debug_abbrev)
 .debug_abbrev  0x00000000       0x26 libs/CDC.o
 .debug_abbrev  0x00000026      0x3ae libs/HardwareSerial.o
 .debug_abbrev  0x000003d4      0x31f libs/HardwareSerial0.o
 .debug_abbrev  0x000006f3      0x31f libs/HardwareSerial1.o
 .debug_abbrev  0x00000a12       0x26 libs/HardwareSerial2.o
 .debug_abbrev  0x00000a38       0x26 libs/HardwareSerial3.o
 .debug_abbrev  0x00000a5e       0x26 libs/HID.o
 .debug_abbrev  0x00000a84       0x2a libs/hooks.o
 .debug_abbrev  0x00000aae      0x30c libs/IPAddress.o
 .debug_abbrev  0x00000dba       0x72 libs/main.o
 .debug_abbrev  0x00000e2c      0x142 libs/new.o
 .debug_abbrev  0x00000f6e      0x419 libs/Print.o
 .debug_abbrev  0x00001387      0x3cb libs/Stream.o
 .debug_abbrev  0x00001752      0x251 libs/Tone.o
 .debug_abbrev  0x000019a3       0x26 libs/USBCore.o
 .debug_abbrev  0x000019c9       0xc1 libs/WInterrupts.o
 .debug_abbrev  0x00001a8a      0x120 libs/wiring.o
 .debug_abbrev  0x00001baa      0x165 libs/wiring_analog.o
 .debug_abbrev  0x00001d0f      0x12b libs/wiring_digital.o
 .debug_abbrev  0x00001e3a       0xee libs/wiring_pulse.o
 .debug_abbrev  0x00001f28       0xfc libs/wiring_shift.o
 .debug_abbrev  0x00002024      0x13c libs/WMath.o
 .debug_abbrev  0x00002160      0x483 libs/WString.o
 .debug_abbrev  0x000025e3      0x14f libs/SPI.o
 .debug_abbrev  0x00002732      0x233 libs/twi.o
 .debug_abbrev  0x00002965      0x4e7 libs/Wire.o
 .debug_abbrev  0x00002e4c      0x7e8 libs/bitlash.o
 .debug_abbrev  0x00003634      0x5a9 libs/GSClient.o
 .debug_abbrev  0x00003bdd      0x9d4 libs/GSCore.o
 .debug_abbrev  0x000045b1      0x6c8 libs/GSModule.o
 .debug_abbrev  0x00004c79      0x60f libs/GSTcpClient.o
 .debug_abbrev  0x00005288      0x5b5 libs/GSUdpClient.o
 .debug_abbrev  0x0000583d      0x751 libs/GSUdpServer.o
 .debug_abbrev  0x00005f8e      0x11f libs/j0g.o
 .debug_abbrev  0x000060ad       0xc9 libs/js0n.o
 .debug_abbrev  0x00006176      0x1c7 libs/nwk.o
 .debug_abbrev  0x0000633d      0x2ac libs/nwkDataReq.o
 .debug_abbrev  0x000065e9      0x181 libs/nwkFrame.o
 .debug_abbrev  0x0000676a      0x143 libs/nwkGroup.o
 .debug_abbrev  0x000068ad      0x345 libs/nwkRoute.o
 .debug_abbrev  0x00006bf2      0x3a8 libs/nwkRouteDiscovery.o
 .debug_abbrev  0x00006f9a      0x3bd libs/nwkRx.o
 .debug_abbrev  0x00007357      0x2ae libs/nwkSecurity.o
 .debug_abbrev  0x00007605      0x37d libs/nwkTx.o
 .debug_abbrev  0x00007982      0x2b9 libs/phy.o
 .debug_abbrev  0x00007c3b       0x73 libs/sys.o
 .debug_abbrev  0x00007cae       0xc9 libs/sysEncrypt.o
 .debug_abbrev  0x00007d77      0x19f libs/sysTimer.o
 .debug_abbrev  0x00007f16      0x69a libs/Pbbe.o
 .debug_abbrev  0x000085b0      0x446 libs/PBBP.o
 .debug_abbrev  0x000089f6      0x16e libs/Backpack.o
 .debug_abbrev  0x00008b64      0x69a libs/Backpacks.o
 .debug_abbrev  0x000091fe      0x88f libs/WiFiBackpack.o
 .debug_abbrev  0x00009a8d       0x78 libs/HqInfo.o
 .debug_abbrev  0x00009b05      0x1ac libs/key.o
 .debug_abbrev  0x00009cb1      0x28c libs/Flash.o
 .debug_abbrev  0x00009f3d      0x105 libs/halFuelGauge.o
 .debug_abbrev  0x0000a042      0x7ac libs/halRgbLed.o
 .debug_abbrev  0x0000a7ee       0x71 libs/halTemperature.o
 .debug_abbrev  0x0000a85f      0x326 libs/Pinoccio.o
 .debug_abbrev  0x0000ab85      0xa46 libs/Scout.o
 .debug_abbrev  0x0000b5cb      0xb41 libs/ScoutHandler.o
 .debug_abbrev  0x0000c10c      0xd28 libs/Shell.o
 .debug_abbrev  0x0000ce34      0x18c libs/memdebug.o
 .debug_abbrev  0x0000cfc0      0x396 libs/StringBuffer.o
 .debug_abbrev  0x0000d356      0x680 Bootstrap.o
 .debug_abbrev  0x0000d9d6       0xfb ../../../../pinoccio16mhz\libcore.a(malloc.c.o)
 .debug_abbrev  0x0000dad1      0x156 ../../../../pinoccio16mhz\libcore.a(realloc.c.o)

.debug_line     0x00000000    0x18ea3
 *(.debug_line .debug_line.* .debug_line_end)
 .debug_line    0x00000000       0x1a libs/CDC.o
 .debug_line    0x0000001a      0x410 libs/HardwareSerial.o
 .debug_line    0x0000042a      0x26e libs/HardwareSerial0.o
 .debug_line    0x00000698      0x26e libs/HardwareSerial1.o
 .debug_line    0x00000906       0x1a libs/HardwareSerial2.o
 .debug_line    0x00000920       0x1a libs/HardwareSerial3.o
 .debug_line    0x0000093a       0x1a libs/HID.o
 .debug_line    0x00000954       0x86 libs/hooks.o
 .debug_line    0x000009da      0x30e libs/IPAddress.o
 .debug_line    0x00000ce8       0xd1 libs/main.o
 .debug_line    0x00000db9      0x203 libs/new.o
 .debug_line    0x00000fbc      0x66c libs/Print.o
 .debug_line    0x00001628      0x593 libs/Stream.o
 .debug_line    0x00001bbb      0x4cb libs/Tone.o
 .debug_line    0x00002086       0x1a libs/USBCore.o
 .debug_line    0x000020a0      0x33c libs/WInterrupts.o
 .debug_line    0x000023dc      0x2de libs/wiring.o
 .debug_line    0x000026ba      0x2c3 libs/wiring_analog.o
 .debug_line    0x0000297d      0x2f8 libs/wiring_digital.o
 .debug_line    0x00002c75      0x199 libs/wiring_pulse.o
 .debug_line    0x00002e0e      0x175 libs/wiring_shift.o
 .debug_line    0x00002f83      0x197 libs/WMath.o
 .debug_line    0x0000311a     0x1272 libs/WString.o
 .debug_line    0x0000438c      0x1e6 libs/SPI.o
 .debug_line    0x00004572      0x5b1 libs/twi.o
 .debug_line    0x00004b23      0x5ad libs/Wire.o
 .debug_line    0x000050d0     0x31e4 libs/bitlash.o
 .debug_line    0x000082b4      0x384 libs/GSClient.o
 .debug_line    0x00008638     0x1462 libs/GSCore.o
 .debug_line    0x00009a9a      0x601 libs/GSModule.o
 .debug_line    0x0000a09b      0x319 libs/GSTcpClient.o
 .debug_line    0x0000a3b4      0x2a3 libs/GSUdpClient.o
 .debug_line    0x0000a657      0x539 libs/GSUdpServer.o
 .debug_line    0x0000ab90      0x2bf libs/j0g.o
 .debug_line    0x0000ae4f      0x1f4 libs/js0n.o
 .debug_line    0x0000b043      0x3f1 libs/nwk.o
 .debug_line    0x0000b434      0x3a2 libs/nwkDataReq.o
 .debug_line    0x0000b7d6      0x2a2 libs/nwkFrame.o
 .debug_line    0x0000ba78      0x1a7 libs/nwkGroup.o
 .debug_line    0x0000bc1f      0x595 libs/nwkRoute.o
 .debug_line    0x0000c1b4      0x69f libs/nwkRouteDiscovery.o
 .debug_line    0x0000c853      0x70c libs/nwkRx.o
 .debug_line    0x0000cf5f      0x3b8 libs/nwkSecurity.o
 .debug_line    0x0000d317      0x688 libs/nwkTx.o
 .debug_line    0x0000d99f      0x593 libs/phy.o
 .debug_line    0x0000df32      0x1a2 libs/sys.o
 .debug_line    0x0000e0d4      0x16c libs/sysEncrypt.o
 .debug_line    0x0000e240      0x31d libs/sysTimer.o
 .debug_line    0x0000e55d      0x957 libs/Pbbe.o
 .debug_line    0x0000eeb4      0x782 libs/PBBP.o
 .debug_line    0x0000f636      0x170 libs/Backpack.o
 .debug_line    0x0000f7a6      0x696 libs/Backpacks.o
 .debug_line    0x0000fe3c      0x969 libs/WiFiBackpack.o
 .debug_line    0x000107a5      0x14c libs/HqInfo.o
 .debug_line    0x000108f1      0x33f libs/key.o
 .debug_line    0x00010c30      0x59a libs/Flash.o
 .debug_line    0x000111ca      0x1ca libs/halFuelGauge.o
 .debug_line    0x00011394      0xb6a libs/halRgbLed.o
 .debug_line    0x00011efe      0x147 libs/halTemperature.o
 .debug_line    0x00012045      0x901 libs/Pinoccio.o
 .debug_line    0x00012946     0x10d2 libs/Scout.o
 .debug_line    0x00013a18     0x11ad libs/ScoutHandler.o
 .debug_line    0x00014bc5     0x3121 libs/Shell.o
 .debug_line    0x00017ce6      0x331 libs/memdebug.o
 .debug_line    0x00018017      0x4bb libs/StringBuffer.o
 .debug_line    0x000184d2      0x5dd Bootstrap.o
 .debug_line    0x00018aaf      0x20a ../../../../pinoccio16mhz\libcore.a(malloc.c.o)
 .debug_line    0x00018cb9      0x1ea ../../../../pinoccio16mhz\libcore.a(realloc.c.o)

.debug_frame    0x00000000     0x89d8
 *(.debug_frame)
 .debug_frame   0x00000000      0x100 libs/HardwareSerial.o
 .debug_frame   0x00000100       0xc0 libs/HardwareSerial0.o
 .debug_frame   0x000001c0       0xc0 libs/HardwareSerial1.o
 .debug_frame   0x00000280       0x24 libs/hooks.o
 .debug_frame   0x000002a4       0xe0 libs/IPAddress.o
 .debug_frame   0x00000384       0x24 libs/main.o
 .debug_frame   0x000003a8       0x94 libs/new.o
 .debug_frame   0x0000043c      0x3b8 libs/Print.o
 .debug_frame   0x000007f4      0x2a8 libs/Stream.o
 .debug_frame   0x00000a9c      0x100 libs/Tone.o
 .debug_frame   0x00000b9c      0x2f4 libs/WInterrupts.o
 .debug_frame   0x00000e90       0xbc libs/wiring.o
 .debug_frame   0x00000f4c       0x54 libs/wiring_analog.o
 .debug_frame   0x00000fa0       0x7c libs/wiring_digital.o
 .debug_frame   0x0000101c       0x58 libs/wiring_pulse.o
 .debug_frame   0x00001074       0x8c libs/wiring_shift.o
 .debug_frame   0x00001100       0xe4 libs/WMath.o
 .debug_frame   0x000011e4      0xa0c libs/WString.o
 .debug_frame   0x00001bf0       0x64 libs/SPI.o
 .debug_frame   0x00001c54      0x114 libs/twi.o
 .debug_frame   0x00001d68      0x1d0 libs/Wire.o
 .debug_frame   0x00001f38     0x12bc libs/bitlash.o
 .debug_frame   0x000031f4      0x108 libs/GSClient.o
 .debug_frame   0x000032fc      0x8c8 libs/GSCore.o
 .debug_frame   0x00003bc4      0x47c libs/GSModule.o
 .debug_frame   0x00004040       0xa8 libs/GSTcpClient.o
 .debug_frame   0x000040e8       0x68 libs/GSUdpClient.o
 .debug_frame   0x00004150      0x1ec libs/GSUdpServer.o
 .debug_frame   0x0000433c       0xe0 libs/j0g.o
 .debug_frame   0x0000441c       0x84 libs/js0n.o
 .debug_frame   0x000044a0       0xd4 libs/nwk.o
 .debug_frame   0x00004574       0x68 libs/nwkDataReq.o
 .debug_frame   0x000045dc       0x64 libs/nwkFrame.o
 .debug_frame   0x00004640       0x64 libs/nwkGroup.o
 .debug_frame   0x000046a4      0x158 libs/nwkRoute.o
 .debug_frame   0x000047fc      0x1d4 libs/nwkRouteDiscovery.o
 .debug_frame   0x000049d0       0xf0 libs/nwkRx.o
 .debug_frame   0x00004ac0       0x90 libs/nwkSecurity.o
 .debug_frame   0x00004b50      0x160 libs/nwkTx.o
 .debug_frame   0x00004cb0      0x17c libs/phy.o
 .debug_frame   0x00004e2c       0x34 libs/sys.o
 .debug_frame   0x00004e60       0x24 libs/sysEncrypt.o
 .debug_frame   0x00004e84       0xc0 libs/sysTimer.o
 .debug_frame   0x00004f44      0x2b4 libs/Pbbe.o
 .debug_frame   0x000051f8      0x368 libs/PBBP.o
 .debug_frame   0x00005560       0x6c libs/Backpack.o
 .debug_frame   0x000055cc      0x1ec libs/Backpacks.o
 .debug_frame   0x000057b8      0x448 libs/WiFiBackpack.o
 .debug_frame   0x00005c00      0x120 libs/key.o
 .debug_frame   0x00005d20      0x248 libs/Flash.o
 .debug_frame   0x00005f68       0x94 libs/halFuelGauge.o
 .debug_frame   0x00005ffc      0x450 libs/halRgbLed.o
 .debug_frame   0x0000644c       0x38 libs/halTemperature.o
 .debug_frame   0x00006484      0x3b4 libs/Pinoccio.o
 .debug_frame   0x00006838      0x468 libs/Scout.o
 .debug_frame   0x00006ca0      0x440 libs/ScoutHandler.o
 .debug_frame   0x000070e0     0x154c libs/Shell.o
 .debug_frame   0x0000862c       0xd0 libs/memdebug.o
 .debug_frame   0x000086fc      0x18c libs/StringBuffer.o
 .debug_frame   0x00008888       0x98 Bootstrap.o
 .debug_frame   0x00008920       0x4c ../../../../pinoccio16mhz\libcore.a(malloc.c.o)
 .debug_frame   0x0000896c       0x6c ../../../../pinoccio16mhz\libcore.a(realloc.c.o)

.debug_str      0x00000000     0xd319
 *(.debug_str)
 .debug_str     0x00000000      0x1ba libs/CDC.o
                                0x1fe (size before relaxing)
 .debug_str     0x000001ba      0xf4d libs/HardwareSerial.o
                               0x1155 (size before relaxing)
 .debug_str     0x00001107       0xd0 libs/HardwareSerial0.o
                                0xf5e (size before relaxing)
 .debug_str     0x000011d7       0x94 libs/HardwareSerial1.o
                                0xf5f (size before relaxing)
 .debug_str     0x0000126b       0x65 libs/HardwareSerial2.o
                                0x1f7 (size before relaxing)
 .debug_str     0x000012d0       0x65 libs/HardwareSerial3.o
                                0x1f7 (size before relaxing)
 .debug_str     0x00001335       0x59 libs/HID.o
                                0x1fe (size before relaxing)
 .debug_str     0x0000138e      0x101 libs/hooks.o
                                0x14e (size before relaxing)
 .debug_str     0x0000148f      0x27a libs/IPAddress.o
                                0x4f9 (size before relaxing)
 .debug_str     0x00001709       0x5a libs/main.o
                                0x224 (size before relaxing)
 .debug_str     0x00001763      0x10f libs/new.o
                                0x258 (size before relaxing)
 .debug_str     0x00001872      0x3b9 libs/Print.o
                                0xe75 (size before relaxing)
 .debug_str     0x00001c2b       0xc0 libs/Stream.o
                                0xe63 (size before relaxing)
 .debug_str     0x00001ceb      0x28d libs/Tone.o
                                0x46d (size before relaxing)
 .debug_str     0x00001f78       0x5d libs/USBCore.o
                                0x202 (size before relaxing)
 .debug_str     0x00001fd5      0x101 libs/WInterrupts.o
                                0x270 (size before relaxing)
 .debug_str     0x000020d6       0xbe libs/wiring.o
                                0x240 (size before relaxing)
 .debug_str     0x00002194       0xb2 libs/wiring_analog.o
                                0x24d (size before relaxing)
 .debug_str     0x00002246       0x9c libs/wiring_digital.o
                                0x2ae (size before relaxing)
 .debug_str     0x000022e2       0x8a libs/wiring_pulse.o
                                0x25f (size before relaxing)
 .debug_str     0x0000236c       0x8b libs/wiring_shift.o
                                0x20b (size before relaxing)
 .debug_str     0x000023f7       0xf8 libs/WMath.o
                                0x24e (size before relaxing)
 .debug_str     0x000024ef      0x3aa libs/WString.o
                                0xe68 (size before relaxing)
 .debug_str     0x00002899      0x162 libs/SPI.o
                                0x358 (size before relaxing)
 .debug_str     0x000029fb      0x1ea libs/twi.o
                                0x390 (size before relaxing)
 .debug_str     0x00002be5      0x4af libs/Wire.o
                               0x13b7 (size before relaxing)
 .debug_str     0x00003094     0x141f libs/bitlash.o
                               0x20c7 (size before relaxing)
 .debug_str     0x000044b3     0x17cd libs/GSClient.o
                               0x2675 (size before relaxing)
 .debug_str     0x00005c80      0x2bc libs/GSCore.o
                               0x2079 (size before relaxing)
 .debug_str     0x00005f3c      0x13d libs/GSModule.o
                               0x25b4 (size before relaxing)
 .debug_str     0x00006079       0xf2 libs/GSTcpClient.o
                               0x24f9 (size before relaxing)
 .debug_str     0x0000616b       0xa5 libs/GSUdpClient.o
                               0x24a3 (size before relaxing)
 .debug_str     0x00006210      0x3e0 libs/GSUdpServer.o
                               0x2841 (size before relaxing)
 .debug_str     0x000065f0       0x64 libs/j0g.o
                                0x1f1 (size before relaxing)
 .debug_str     0x00006654       0xec libs/js0n.o
                                0x215 (size before relaxing)
 .debug_str     0x00006740      0x22a libs/nwk.o
                                0x3c9 (size before relaxing)
 .debug_str     0x0000696a      0x3b9 libs/nwkDataReq.o
                                0x611 (size before relaxing)
 .debug_str     0x00006d23       0x81 libs/nwkFrame.o
                                0x44d (size before relaxing)
 .debug_str     0x00006da4       0x9d libs/nwkGroup.o
                                0x21e (size before relaxing)
 .debug_str     0x00006e41      0x21b libs/nwkRoute.o
                                0x634 (size before relaxing)
 .debug_str     0x0000705c      0x285 libs/nwkRouteDiscovery.o
                                0x799 (size before relaxing)
 .debug_str     0x000072e1      0x2f6 libs/nwkRx.o
                                0x870 (size before relaxing)
 .debug_str     0x000075d7      0x1d6 libs/nwkSecurity.o
                                0x552 (size before relaxing)
 .debug_str     0x000077ad      0x1da libs/nwkTx.o
                                0x73b (size before relaxing)
 .debug_str     0x00007987      0x591 libs/phy.o
                                0x804 (size before relaxing)
 .debug_str     0x00007f18       0x7c libs/sys.o
                                0x211 (size before relaxing)
 .debug_str     0x00007f94       0x3e libs/sysEncrypt.o
                                0x1cd (size before relaxing)
 .debug_str     0x00007fd2       0x75 libs/sysTimer.o
                                0x293 (size before relaxing)
 .debug_str     0x00008047     0x1007 libs/Pbbe.o
                               0x13f1 (size before relaxing)
 .debug_str     0x0000904e      0x11a libs/PBBP.o
                                0x78b (size before relaxing)
 .debug_str     0x00009168       0xd5 libs/Backpack.o
                                0x319 (size before relaxing)
 .debug_str     0x0000923d      0x4d6 libs/Backpacks.o
                               0x1685 (size before relaxing)
 .debug_str     0x00009713      0x50a libs/WiFiBackpack.o
                               0x2d10 (size before relaxing)
 .debug_str     0x00009c1d       0xb1 libs/HqInfo.o
                                0x254 (size before relaxing)
 .debug_str     0x00009cce       0x94 libs/key.o
                                0x1f9 (size before relaxing)
 .debug_str     0x00009d62      0x310 libs/Flash.o
                                0x65c (size before relaxing)
 .debug_str     0x0000a072      0x10c libs/halFuelGauge.o
                                0x2b8 (size before relaxing)
 .debug_str     0x0000a17e     0x1b3e libs/halRgbLed.o
                               0x4b0a (size before relaxing)
 .debug_str     0x0000bcbc       0x7d libs/halTemperature.o
                                0x1e9 (size before relaxing)
 .debug_str     0x0000bd39      0x109 libs/Pinoccio.o
                                0xd33 (size before relaxing)
 .debug_str     0x0000be42      0x277 libs/Scout.o
                               0x5822 (size before relaxing)
 .debug_str     0x0000c0b9      0x530 libs/ScoutHandler.o
                               0x4e24 (size before relaxing)
 .debug_str     0x0000c5e9      0x95d libs/Shell.o
                               0x69b4 (size before relaxing)
 .debug_str     0x0000cf46      0x12f libs/memdebug.o
                                0x31d (size before relaxing)
 .debug_str     0x0000d075       0xa5 libs/StringBuffer.o
                                0xdbb (size before relaxing)
 .debug_str     0x0000d11a       0x8b Bootstrap.o
                               0x43ba (size before relaxing)
 .debug_str     0x0000d1a5       0xf4 ../../../../pinoccio16mhz\libcore.a(malloc.c.o)
                                0x1d2 (size before relaxing)
 .debug_str     0x0000d299       0x80 ../../../../pinoccio16mhz\libcore.a(realloc.c.o)
                                0x1b2 (size before relaxing)

.debug_loc      0x00000000    0x29d66
 *(.debug_loc)
 .debug_loc     0x00000000      0x465 libs/HardwareSerial.o
 .debug_loc     0x00000465      0x161 libs/HardwareSerial0.o
 .debug_loc     0x000005c6      0x161 libs/HardwareSerial1.o
 .debug_loc     0x00000727      0x25d libs/IPAddress.o
 .debug_loc     0x00000984       0xc0 libs/new.o
 .debug_loc     0x00000a44     0x1eed libs/Print.o
 .debug_loc     0x00002931      0xfb8 libs/Stream.o
 .debug_loc     0x000038e9      0xbaf libs/Tone.o
 .debug_loc     0x00004498      0x820 libs/WInterrupts.o
 .debug_loc     0x00004cb8      0x22a libs/wiring.o
 .debug_loc     0x00004ee2       0xf2 libs/wiring_analog.o
 .debug_loc     0x00004fd4      0x700 libs/wiring_digital.o
 .debug_loc     0x000056d4      0x47a libs/wiring_pulse.o
 .debug_loc     0x00005b4e      0x2e7 libs/wiring_shift.o
 .debug_loc     0x00005e35      0x3b6 libs/WMath.o
 .debug_loc     0x000061eb     0x3d0a libs/WString.o
 .debug_loc     0x00009ef5       0x5b libs/SPI.o
 .debug_loc     0x00009f50      0x5a3 libs/twi.o
 .debug_loc     0x0000a4f3      0x8a8 libs/Wire.o
 .debug_loc     0x0000ad9b     0x47c6 libs/bitlash.o
 .debug_loc     0x0000f561      0x3da libs/GSClient.o
 .debug_loc     0x0000f93b     0x3758 libs/GSCore.o
 .debug_loc     0x00013093     0x1750 libs/GSModule.o
 .debug_loc     0x000147e3      0x307 libs/GSTcpClient.o
 .debug_loc     0x00014aea      0x18e libs/GSUdpClient.o
 .debug_loc     0x00014c78      0xa24 libs/GSUdpServer.o
 .debug_loc     0x0001569c      0x62b libs/j0g.o
 .debug_loc     0x00015cc7      0x688 libs/js0n.o
 .debug_loc     0x0001634f      0x14d libs/nwk.o
 .debug_loc     0x0001649c      0x15f libs/nwkDataReq.o
 .debug_loc     0x000165fb      0x11e libs/nwkFrame.o
 .debug_loc     0x00016719      0x1a6 libs/nwkGroup.o
 .debug_loc     0x000168bf      0x6b5 libs/nwkRoute.o
 .debug_loc     0x00016f74      0x9e6 libs/nwkRouteDiscovery.o
 .debug_loc     0x0001795a      0x603 libs/nwkRx.o
 .debug_loc     0x00017f5d      0x1d3 libs/nwkSecurity.o
 .debug_loc     0x00018130      0x6ef libs/nwkTx.o
 .debug_loc     0x0001881f      0x475 libs/phy.o
 .debug_loc     0x00018c94       0x4c libs/sysEncrypt.o
 .debug_loc     0x00018ce0      0x413 libs/sysTimer.o
 .debug_loc     0x000190f3     0x16d9 libs/Pbbe.o
 .debug_loc     0x0001a7cc     0x1464 libs/PBBP.o
 .debug_loc     0x0001bc30       0x22 libs/Backpack.o
 .debug_loc     0x0001bc52      0x9d5 libs/Backpacks.o
 .debug_loc     0x0001c627     0x156b libs/WiFiBackpack.o
 .debug_loc     0x0001db92      0x552 libs/key.o
 .debug_loc     0x0001e0e4      0xb4d libs/Flash.o
 .debug_loc     0x0001ec31       0x21 libs/halFuelGauge.o
 .debug_loc     0x0001ec52     0x16bd libs/halRgbLed.o
 .debug_loc     0x0002030f       0xad libs/halTemperature.o
 .debug_loc     0x000203bc      0xf2b libs/Pinoccio.o
 .debug_loc     0x000212e7     0x1d85 libs/Scout.o
 .debug_loc     0x0002306c     0x139e libs/ScoutHandler.o
 .debug_loc     0x0002440a     0x43f4 libs/Shell.o
 .debug_loc     0x000287fe      0x1d6 libs/memdebug.o
 .debug_loc     0x000289d4      0x9a0 libs/StringBuffer.o
 .debug_loc     0x00029374       0x51 Bootstrap.o
 .debug_loc     0x000293c5      0x4e6 ../../../../pinoccio16mhz\libcore.a(malloc.c.o)
 .debug_loc     0x000298ab      0x4bb ../../../../pinoccio16mhz\libcore.a(realloc.c.o)

.debug_macinfo
 *(.debug_macinfo)

.debug_weaknames
 *(.debug_weaknames)

.debug_funcnames
 *(.debug_funcnames)

.debug_typenames
 *(.debug_typenames)

.debug_varnames
 *(.debug_varnames)

.debug_pubtypes
 *(.debug_pubtypes)

.debug_ranges   0x00000000     0x2d90
 *(.debug_ranges)
 .debug_ranges  0x00000000       0x68 libs/HardwareSerial.o
 .debug_ranges  0x00000068       0x28 libs/HardwareSerial0.o
 .debug_ranges  0x00000090       0x28 libs/HardwareSerial1.o
 .debug_ranges  0x000000b8       0x10 libs/hooks.o
 .debug_ranges  0x000000c8       0x68 libs/IPAddress.o
 .debug_ranges  0x00000130       0x10 libs/main.o
 .debug_ranges  0x00000140       0x48 libs/new.o
 .debug_ranges  0x00000188      0x140 libs/Print.o
 .debug_ranges  0x000002c8       0xa0 libs/Stream.o
 .debug_ranges  0x00000368       0x70 libs/Tone.o
 .debug_ranges  0x000003d8       0x58 libs/WInterrupts.o
 .debug_ranges  0x00000430       0x38 libs/wiring.o
 .debug_ranges  0x00000468       0x20 libs/wiring_analog.o
 .debug_ranges  0x00000488       0x28 libs/wiring_digital.o
 .debug_ranges  0x000004b0       0x40 libs/wiring_pulse.o
 .debug_ranges  0x000004f0       0x18 libs/wiring_shift.o
 .debug_ranges  0x00000508       0x38 libs/WMath.o
 .debug_ranges  0x00000540      0x2f8 libs/WString.o
 .debug_ranges  0x00000838       0x30 libs/SPI.o
 .debug_ranges  0x00000868       0x60 libs/twi.o
 .debug_ranges  0x000008c8       0xc0 libs/Wire.o
 .debug_ranges  0x00000988      0x770 libs/bitlash.o
 .debug_ranges  0x000010f8       0x68 libs/GSClient.o
 .debug_ranges  0x00001160      0x278 libs/GSCore.o
 .debug_ranges  0x000013d8       0xa8 libs/GSModule.o
 .debug_ranges  0x00001480       0x48 libs/GSTcpClient.o
 .debug_ranges  0x000014c8       0x38 libs/GSUdpClient.o
 .debug_ranges  0x00001500       0xc0 libs/GSUdpServer.o
 .debug_ranges  0x000015c0       0x30 libs/j0g.o
 .debug_ranges  0x000015f0       0x10 libs/js0n.o
 .debug_ranges  0x00001600       0x60 libs/nwk.o
 .debug_ranges  0x00001660       0x28 libs/nwkDataReq.o
 .debug_ranges  0x00001688       0x30 libs/nwkFrame.o
 .debug_ranges  0x000016b8       0x30 libs/nwkGroup.o
 .debug_ranges  0x000016e8       0x70 libs/nwkRoute.o
 .debug_ranges  0x00001758       0x80 libs/nwkRouteDiscovery.o
 .debug_ranges  0x000017d8       0xd8 libs/nwkRx.o
 .debug_ranges  0x000018b0       0x48 libs/nwkSecurity.o
 .debug_ranges  0x000018f8       0x70 libs/nwkTx.o
 .debug_ranges  0x00001968       0x88 libs/phy.o
 .debug_ranges  0x000019f0       0x18 libs/sys.o
 .debug_ranges  0x00001a08       0x10 libs/sysEncrypt.o
 .debug_ranges  0x00001a18       0x70 libs/sysTimer.o
 .debug_ranges  0x00001a88       0xf8 libs/Pbbe.o
 .debug_ranges  0x00001b80      0x158 libs/PBBP.o
 .debug_ranges  0x00001cd8       0x30 libs/Backpack.o
 .debug_ranges  0x00001d08      0x158 libs/Backpacks.o
 .debug_ranges  0x00001e60      0x128 libs/WiFiBackpack.o
 .debug_ranges  0x00001f88       0x38 libs/key.o
 .debug_ranges  0x00001fc0       0x98 libs/Flash.o
 .debug_ranges  0x00002058       0x48 libs/halFuelGauge.o
 .debug_ranges  0x000020a0      0x1a8 libs/halRgbLed.o
 .debug_ranges  0x00002248       0x10 libs/halTemperature.o
 .debug_ranges  0x00002258      0x148 libs/Pinoccio.o
 .debug_ranges  0x000023a0      0x1b8 libs/Scout.o
 .debug_ranges  0x00002558      0x1f0 libs/ScoutHandler.o
 .debug_ranges  0x00002748      0x528 libs/Shell.o
 .debug_ranges  0x00002c70       0x48 libs/memdebug.o
 .debug_ranges  0x00002cb8       0x70 libs/StringBuffer.o
 .debug_ranges  0x00002d28       0x40 Bootstrap.o
 .debug_ranges  0x00002d68       0x18 ../../../../pinoccio16mhz\libcore.a(malloc.c.o)
 .debug_ranges  0x00002d80       0x10 ../../../../pinoccio16mhz\libcore.a(realloc.c.o)

.debug_macro
 *(.debug_macro)
OUTPUT(Bootstrap.elf elf32-avr)
LOAD linker stubs
